ccopy_reg
_reconstructor
p0
(cnltk.probability
ConditionalProbDist
p1
c__builtin__
dict
p2
(dp3
S'IH2'
p4
g0
(cnltk.probability
ELEProbDist
p5
c__builtin__
object
p6
Ntp7
Rp8
(dp9
S'_gamma'
p10
F0.5
sS'_N'
p11
I61792
sS'_freqdist'
p12
cnltk.probability
FreqDist
p13
((dp14
S'CH'
p15
I1059
sS'ZH'
p16
I267
sS'D'
p17
I333
sS'DH'
p18
I770
sS'F'
p19
I174
sS'K'
p20
I497
sS'M'
p21
I6887
sS'L'
p22
I2476
sS'N'
p23
I31488
sS'P'
p24
I2049
sS'S'
p25
I4198
sS'R'
p26
I1292
sS'JH'
p27
I50
sS'T'
p28
I1541
sS'V'
p29
I99
sS'Z'
p30
I3478
sS'G'
p31
I1062
sS'NG'
p32
I3590
sS'SH'
p33
I38
sS'TH'
p34
I55
sS'B'
p35
I389
stp36
Rp37
sS'_bins'
p38
I17104027
sS'_divisor'
p39
F8613805.5
sbsS'IH0'
p40
g0
(g5
g6
Ntp41
Rp42
(dp43
g10
F0.5
sg11
I434524
sg12
g13
((dp44
S'CH'
p45
I330
sS'ZH'
p46
I1
sg17
I22900
sS'DH'
p47
I1068
sg19
I9816
sg20
I58579
sS'SH'
p48
I6418
sg21
I6515
sg22
I13444
sg23
I96565
sg24
I6054
sS'HH'
p49
I1570
sg35
I329
sS'JH'
p50
I4278
sg28
I18618
sS'W'
p51
I178
sg29
I17423
sS'Y'
p52
I1
sg30
I14291
sg31
I9192
sg25
I29430
sS'NG'
p53
I113307
sg26
I479
sS'AA1'
p54
I456
sS'TH'
p55
I3282
stp56
Rp57
sg38
I17104027
sg39
F8986537.5
sbsS'IH1'
p58
g0
(g5
g6
Ntp59
Rp60
(dp61
g10
F0.5
sg11
I540535
sg12
g13
((dp62
g35
I2611
sS'ZH'
p63
I2363
sg17
I13625
sS'DH'
p64
I28580
sg19
I30917
sg20
I13311
sS'SH'
p65
I14098
sg21
I17479
sg22
I45857
sg23
I54960
sg24
I10872
sS'HH'
p66
I5
sS'CH'
p67
I13622
sS'JH'
p68
I6277
sg28
I77662
sg29
I9611
sg30
I84847
sS'AE0'
p69
I1
sg31
I5193
sS'EH1'
p70
I2
sg25
I60104
sS'NG'
p71
I22570
sg26
I25100
sS'TH'
p72
I868
stp73
Rp74
sg38
I17104027
sg39
F9092548.5
sbsS'AH2'
p75
g0
(g5
g6
Ntp76
Rp77
(dp78
g10
F0.5
sg11
I16222
sg12
g13
((dp79
g35
I254
sg17
I20
sS'DH'
p80
I29
sg19
I8
sg20
I55
sg21
I424
sg22
I326
sg23
I12423
sg24
I1221
sS'AH0'
p81
I6
sg26
I5
sS'JH'
p82
I1
sg28
I1033
sg51
I4
sg29
I67
sg52
I1
sg30
I4
sg31
I2
sS'HH'
p83
I1
sg25
I203
sS'NG'
p84
I118
sS'SH'
p85
I13
sS'AA1'
p86
I2
sS'AY1'
p87
I2
stp88
Rp89
sg38
I17104027
sg39
F8568235.5
sbsS'AH0'
p90
g0
(g5
g6
Ntp91
Rp92
(dp93
g10
F0.5
sg11
I1354589
sg12
g13
((dp94
g51
I22564
sS'DH'
p95
I2260
sS'IH2'
p96
I3977
sS'IH0'
p97
I3987
sS'IH1'
p98
I5109
sS'AH2'
p99
I179
sS'AH0'
p100
I9353
sg35
I83389
sS'JH'
p101
I22495
sS'AA0'
p102
I854
sS'UW1'
p103
I11
sS'AO0'
p104
I162
sg30
I22654
sS'EH2'
p105
I440
sS'EH0'
p106
I730
sS'EH1'
p107
I5548
sS'NG'
p108
I89
sS'EY1'
p109
I948
sS'EY0'
p110
I16
sS'EY2'
p111
I53
sS'TH'
p112
I4544
sS'AA1'
p113
I3525
sS'AY1'
p114
I1486
sS'AY0'
p115
I592
sS'AY2'
p116
I45
sS'AH1'
p117
I5214
sS'CH'
p118
I4746
sS'ZH'
p119
I98
sg17
I55523
sg31
I26787
sg19
I36346
sg20
I64007
sS'IY2'
p120
I21
sg21
I81041
sS'AW2'
p121
I7
sS'AW1'
p122
I609
sg22
I192517
sg24
I54401
sg25
I94794
sg26
I21692
sg28
I71152
sS'AO1'
p123
I2532
sg29
I18206
sg52
I5522
sg23
I396554
sS'OW1'
p124
I2818
sS'OW0'
p125
I92
sS'OW2'
p126
I46
sS'AE1'
p127
I4323
sS'AE0'
p128
I665
sS'AE2'
p129
I550
sS'ER0'
p130
I858
sS'ER1'
p131
I677
sS'ER2'
p132
I7
sS'AW0'
p133
I4
sS'HH'
p134
I11628
sS'OY1'
p135
I180
sS'SH'
p136
I4346
sS'IY1'
p137
I878
sS'IY0'
p138
I145
sS'AA2'
p139
I389
sS'AO2'
p140
I204
stp141
Rp142
sg38
I17104027
sg39
F9906602.5
sbsS'AH1'
p143
g0
(g5
g6
Ntp144
Rp145
(dp146
g10
F0.5
sg11
I386916
sg12
g13
((dp147
g51
I27
sS'DH'
p148
I14606
sS'IH2'
p149
I5
sS'IH0'
p150
I2
sS'IH1'
p151
I44
sS'AH0'
p152
I23
sS'AH1'
p153
I2
sS'JH'
p154
I1311
sS'EH1'
p155
I23
sS'NG'
p156
I4103
sS'EY1'
p157
I6
sS'TH'
p158
I1898
sS'AA1'
p159
I8
sS'AY1'
p160
I14
sS'AY0'
p161
I1
sS'CH'
p162
I9898
sg17
I2816
sg31
I3473
sg19
I5297
sg20
I5260
sg21
I70737
sg22
I7580
sg23
I42244
sg24
I10901
sg25
I23716
sg26
I34
sg28
I41699
sS'AO1'
p163
I22
sg29
I116224
sg52
I34
sg30
I11097
sS'OW1'
p164
I18
sS'AE1'
p165
I13
sS'AE2'
p166
I1
sS'ER0'
p167
I3
sS'ER1'
p168
I1
sS'HH'
p169
I34
sS'SH'
p170
I2699
sS'IY1'
p171
I4
sS'IY0'
p172
I2
sg35
I11036
stp173
Rp174
sg38
I17104027
sg39
F8938929.5
sbsS'JH'
p175
g0
(g5
g6
Ntp176
Rp177
(dp178
g10
F0.5
sg11
I131197
sg12
g13
((dp179
S'IH2'
p180
I170
sS'IH0'
p181
I6905
sS'IH1'
p182
I2785
sS'AH2'
p183
I159
sS'AH0'
p184
I19070
sS'AH1'
p185
I13865
sS'JH'
p186
I142
sS'AO0'
p187
I26
sS'EH2'
p188
I598
sS'EH0'
p189
I1629
sS'EH1'
p190
I30932
sS'EY1'
p191
I4786
sS'EY0'
p192
I33
sS'EY2'
p193
I18
sS'AY1'
p194
I559
sS'AY0'
p195
I78
sS'AY2'
p196
I122
sg35
I708
sg17
I2517
sg19
I916
sg22
I379
sS'AW1'
p197
I46
sg23
I289
sg24
I699
sg26
I404
sg28
I897
sS'AO1'
p198
I1696
sg29
I242
sg30
I5
sS'OY2'
p199
I1
sS'OY1'
p200
I1116
sS'SH'
p201
I64
sS'DH'
p202
I1218
sS'UW2'
p203
I196
sS'UW1'
p204
I3429
sS'UW0'
p205
I452
sS'HH'
p206
I412
sS'CH'
p207
I43
sS'UH2'
p208
I84
sS'UH0'
p209
I351
sS'UH1'
p210
I114
sS'TH'
p211
I73
sS'AA1'
p212
I5566
sS'IY0'
p213
I3492
sS'ZH'
p214
I2
sg31
I174
sg20
I767
sS'IY2'
p215
I390
sg21
I1475
sg25
I894
sg51
I846
sg52
I327
sS'OW1'
p216
I1945
sS'OW0'
p217
I55
sS'OW2'
p218
I5
sS'AE1'
p219
I1863
sS'AE0'
p220
I60
sS'AE2'
p221
I347
sS'ER0'
p222
I6221
sS'ER1'
p223
I1578
sS'ER2'
p224
I1
sS'IY1'
p225
I6913
sS'AA0'
p226
I5
sS'AA2'
p227
I11
sS'AO2'
p228
I32
stp229
Rp230
sg38
I17104027
sg39
F8683210.5
sbsS'EH2'
p231
g0
(g5
g6
Ntp232
Rp233
(dp234
g10
F0.5
sg11
I41478
sg12
g13
((dp235
g35
I3
sS'ZH'
p236
I4
sg17
I532
sg31
I370
sg19
I1291
sg20
I5015
sS'IH1'
p237
I1
sg21
I1051
sg22
I1519
sS'AW1'
p238
I1
sg23
I3280
sg24
I1207
sS'AH0'
p239
I2
sS'CH'
p240
I4
sS'JH'
p241
I921
sg28
I5427
sS'AO1'
p242
I2
sg29
I837
sg30
I930
sS'OW2'
p243
I6
sS'ER1'
p244
I1
sS'SH'
p245
I23
sg25
I7992
sS'NG'
p246
I29
sg51
I3
sg26
I10906
sS'AA1'
p247
I2
sS'TH'
p248
I118
sS'AY1'
p249
I1
stp250
Rp251
sg38
I17104027
sg39
F8593491.5
sbsg189
g0
(g5
g6
Ntp252
Rp253
(dp254
g10
F0.5
sg11
I20581
sg12
g13
((dp255
g17
I144
sg31
I633
sg19
I24
sg20
I5165
sS'IH1'
p256
I1
sg21
I1920
sg22
I362
sg23
I7461
sg24
I596
sS'HH'
p257
I8
sg26
I1509
sg28
I75
sg51
I2
sg29
I90
sg30
I327
sg25
I2235
sS'NG'
p258
I5
sS'TH'
p259
I24
stp260
Rp261
sg38
I17104027
sg39
F8572594.5
sbsg190
g0
(g5
g6
Ntp262
Rp263
(dp264
g10
F0.5
sg11
I457261
sg12
g13
((dp265
S'DH'
p266
I2685
sS'IH2'
p267
I1
sS'IH1'
p268
I2
sS'HH'
p269
I37
sS'AH1'
p270
I1
sS'JH'
p271
I1997
sS'EH1'
p272
I17
sS'NG'
p273
I1016
sS'EY1'
p274
I5
sS'TH'
p275
I2777
sS'AY1'
p276
I1
sS'CH'
p277
I324
sS'ZH'
p278
I810
sg17
I21998
sg31
I3449
sg19
I8773
sg20
I66696
sg21
I29233
sg22
I39060
sg23
I101602
sg24
I7110
sg25
I36525
sg26
I68416
sg28
I32274
sg51
I4
sg29
I20767
sg52
I8
sg30
I5306
sS'OW1'
p279
I2
sS'AE1'
p280
I3
sS'AH0'
p281
I6
sS'SH'
p282
I5367
sS'IY1'
p283
I2
sg35
I987
stp284
Rp285
sg38
I17104027
sg39
F9009274.5
sbsg53
g0
(g5
g6
Ntp286
Rp287
(dp288
g10
F0.5
sg11
I154831
sg12
g13
((dp289
S'AO1'
p290
I1623
sS'DH'
p291
I16186
sS'IH2'
p292
I849
sS'IH0'
p293
I3886
sS'IH1'
p294
I4849
sS'AH2'
p295
I45
sS'HH'
p296
I3041
sS'AH1'
p297
I4037
sS'JH'
p298
I647
sS'AA0'
p299
I58
sS'AO0'
p300
I33
sS'EH2'
p301
I146
sS'EH0'
p302
I119
sS'EH1'
p303
I2027
sS'EY1'
p304
I294
sS'EY2'
p305
I4
sS'TH'
p306
I876
sS'AA1'
p307
I2850
sS'AY1'
p308
I1063
sS'UW1'
p309
I3
sS'AY2'
p310
I8
sS'CH'
p311
I378
sS'ZH'
p312
I4
sg17
I2890
sg31
I7125
sg19
I5512
sg20
I24520
sS'AA2'
p313
I56
sg21
I3682
sg22
I3364
sS'AW1'
p314
I1125
sg23
I1443
sg24
I3590
sg25
I6718
sg26
I2508
sg28
I13317
sg51
I5683
sg29
I602
sg52
I2100
sg30
I6917
sS'OW1'
p315
I517
sS'OW0'
p316
I33
sS'OW2'
p317
I20
sS'AE1'
p318
I3445
sS'AE0'
p319
I107
sS'AE2'
p320
I126
sS'ER0'
p321
I673
sS'ER1'
p322
I41
sS'ER2'
p323
I1
sS'AW0'
p324
I22
sS'AH0'
p325
I10992
sS'OY1'
p326
I46
sS'AY0'
p327
I41
sS'SH'
p328
I499
sS'IY1'
p329
I412
sS'IY0'
p330
I45
sS'IY2'
p331
I7
sg35
I3555
sS'AO2'
p332
I71
stp333
Rp334
sg38
I17104027
sg39
F8706844.5
sbsS'EY1'
p335
g0
(g5
g6
Ntp336
Rp337
(dp338
g10
F0.5
sg11
I261392
sg12
g13
((dp339
g51
I6229
sS'DH'
p340
I3842
sS'IH2'
p341
I543
sS'IH0'
p342
I3283
sS'IH1'
p343
I1526
sS'AH2'
p344
I36
sS'HH'
p345
I4057
sS'AH1'
p346
I835
sS'JH'
p347
I5646
sS'AO0'
p348
I43
sg30
I5609
sS'EH2'
p349
I99
sS'EH0'
p350
I91
sS'EH1'
p351
I1482
sS'NG'
p352
I10
sS'EY1'
p353
I243
sS'EY0'
p354
I5
sS'EY2'
p355
I12
sS'TH'
p356
I2401
sS'AA1'
p357
I3566
sS'AY1'
p358
I1031
sS'UW1'
p359
I11
sS'AA0'
p360
I97
sS'CH'
p361
I3827
sS'ZH'
p362
I675
sg17
I13616
sg31
I2168
sg19
I3589
sg20
I20646
sg21
I21563
sS'AW2'
p363
I90
sS'AW1'
p364
I159
sg22
I15603
sg24
I6572
sg25
I21638
sg26
I1636
sg28
I27918
sS'AO1'
p365
I1070
sg29
I9631
sg52
I1175
sg23
I21100
sS'OW1'
p366
I454
sS'OW0'
p367
I57
sS'OW2'
p368
I17
sS'AE1'
p369
I937
sS'AE0'
p370
I111
sS'AE2'
p371
I44
sS'ER0'
p372
I1962
sS'ER1'
p373
I25
sS'AW0'
p374
I16
sS'AH0'
p375
I2911
sS'OY1'
p376
I11
sS'AY0'
p377
I11
sS'SH'
p378
I29692
sS'IY1'
p379
I292
sS'IY0'
p380
I6
sS'AA2'
p381
I22
sg35
I10888
sS'AY2'
p382
I3
sS'AO2'
p383
I560
stp384
Rp385
sg38
I17104027
sg39
F8813405.5
sbsS'EY0'
p386
g0
(g5
g6
Ntp387
Rp388
(dp389
g10
F0.5
sg11
I2033
sg12
g13
((dp390
S'AO1'
p391
I11
sS'DH'
p392
I5
sS'IH2'
p393
I90
sS'IH1'
p394
I6
sS'HH'
p395
I5
sS'AH1'
p396
I3
sS'JH'
p397
I1
sS'EH1'
p398
I1
sS'EY1'
p399
I1
sS'TH'
p400
I3
sS'AA1'
p401
I12
sS'AY1'
p402
I1
sS'AA0'
p403
I1
sS'CH'
p404
I4
sg17
I54
sg31
I13
sg19
I3
sg20
I96
sg21
I53
sg22
I186
sg23
I522
sg24
I2
sg25
I34
sg26
I30
sg28
I775
sg51
I10
sg29
I5
sg52
I7
sg30
I33
sS'OW1'
p405
I11
sS'OW0'
p406
I1
sS'AE1'
p407
I3
sS'AE0'
p408
I2
sS'AE2'
p409
I1
sS'AH0'
p410
I14
sS'SH'
p411
I14
sS'IY1'
p412
I1
sS'IY0'
p413
I1
sg35
I18
stp414
Rp415
sg38
I17104027
sg39
F8554046.5
sbsS'EY2'
p416
g0
(g5
g6
Ntp417
Rp418
(dp419
g10
F0.5
sg11
I24381
sg12
g13
((dp420
g51
I137
sS'DH'
p421
I184
sS'IH2'
p422
I11
sS'IH0'
p423
I67
sS'IH1'
p424
I120
sS'AH2'
p425
I2
sS'HH'
p426
I104
sS'AH1'
p427
I13
sS'JH'
p428
I221
sS'EH2'
p429
I18
sS'EH1'
p430
I23
sS'EY1'
p431
I125
sS'TH'
p432
I36
sS'AA1'
p433
I40
sS'AY1'
p434
I141
sS'AA0'
p435
I1
sg35
I163
sS'ZH'
p436
I4
sg17
I331
sg31
I52
sg19
I119
sg20
I510
sg21
I308
sg22
I2223
sS'AW1'
p437
I8
sg23
I352
sg24
I871
sg25
I1482
sg26
I124
sg28
I13196
sS'AO1'
p438
I38
sg29
I252
sg52
I56
sg30
I2186
sS'OW1'
p439
I11
sS'OW0'
p440
I1
sS'AE1'
p441
I127
sS'AE0'
p442
I2
sS'AE2'
p443
I19
sS'ER0'
p444
I53
sS'AW0'
p445
I2
sS'CH'
p446
I96
sS'AH0'
p447
I176
sS'SH'
p448
I346
sS'IY1'
p449
I17
sS'IY0'
p450
I4
sS'AA2'
p451
I6
sS'AO2'
p452
I3
stp453
Rp454
sg38
I17104027
sg39
F8576394.5
sbsS'OW2'
p455
g0
(g5
g6
Ntp456
Rp457
(dp458
g10
F0.5
sg11
I12534
sg12
g13
((dp459
S'AO1'
p460
I81
sS'DH'
p461
I100
sS'IH2'
p462
I45
sS'IH0'
p463
I207
sS'IH1'
p464
I140
sS'AH2'
p465
I2
sS'AH0'
p466
I439
sS'AH1'
p467
I98
sS'JH'
p468
I41
sS'EH2'
p469
I12
sS'EH0'
p470
I1
sS'EH1'
p471
I40
sS'EY1'
p472
I13
sS'EY0'
p473
I4
sS'EY2'
p474
I6
sS'TH'
p475
I31
sS'AA1'
p476
I110
sS'AY1'
p477
I29
sS'IY0'
p478
I2
sS'CH'
p479
I27
sg17
I799
sg31
I40
sg19
I168
sg20
I669
sg21
I1734
sg22
I582
sS'AW1'
p480
I14
sg23
I1037
sg24
I423
sg25
I2463
sg26
I212
sg28
I666
sg51
I181
sg29
I436
sg52
I71
sg30
I699
sS'OW1'
p481
I7
sS'OW0'
p482
I9
sS'AO0'
p483
I1
sS'AE1'
p484
I79
sS'AE0'
p485
I10
sS'AE2'
p486
I3
sS'ER0'
p487
I8
sS'ER1'
p488
I1
sS'HH'
p489
I105
sS'SH'
p490
I417
sS'IY1'
p491
I8
sS'AA0'
p492
I1
sS'AA2'
p493
I21
sg35
I242
stp494
Rp495
sg38
I17104027
sg39
F8564547.5
sbsS'AY1'
p496
g0
(g5
g6
Ntp497
Rp498
(dp499
g10
F0.5
sg11
I308210
sg12
g13
((dp500
g51
I11440
sS'DH'
p501
I6271
sS'IH2'
p502
I803
sS'IH0'
p503
I4864
sS'UW0'
p504
I1
sS'AH2'
p505
I464
sS'HH'
p506
I10488
sS'AH1'
p507
I344
sS'JH'
p508
I1872
sS'UW1'
p509
I2
sS'AO0'
p510
I87
sg30
I5571
sS'CH'
p511
I711
sS'EH0'
p512
I224
sS'EH1'
p513
I2012
sS'NG'
p514
I31
sS'EY1'
p515
I318
sS'EY0'
p516
I1
sS'EY2'
p517
I8
sS'TH'
p518
I4638
sS'AA1'
p519
I896
sS'AY1'
p520
I1034
sS'AY0'
p521
I42
sS'AA0'
p522
I117
sS'IH1'
p523
I1502
sS'ZH'
p524
I7
sg17
I25703
sg31
I3636
sg19
I6731
sg20
I26323
sS'IY2'
p525
I36
sg21
I21340
sS'AW2'
p526
I4
sS'AW1'
p527
I138
sg22
I16095
sg24
I6257
sg25
I16212
sg26
I6775
sg28
I41030
sS'AO1'
p528
I1324
sg29
I14806
sg52
I1674
sS'EH2'
p529
I71
sg23
I25613
sS'OW1'
p530
I1152
sS'OW0'
p531
I601
sS'OW2'
p532
I41
sS'AE1'
p533
I5989
sS'AE0'
p534
I141
sS'AE2'
p535
I205
sS'ER0'
p536
I9131
sS'ER1'
p537
I76
sS'ER2'
p538
I1
sS'AW0'
p539
I3
sS'AH0'
p540
I14231
sS'OY1'
p541
I9
sS'SH'
p542
I988
sS'IY1'
p543
I464
sS'IY0'
p544
I122
sS'AA2'
p545
I127
sg35
I7335
sS'AY2'
p546
I32
sS'AO2'
p547
I46
stp548
Rp549
sg38
I17104027
sg39
F8860223.5
sbsS'AY0'
p550
g0
(g5
g6
Ntp551
Rp552
(dp553
g10
F0.5
sg11
I7921
sg12
g13
((dp554
S'AO1'
p555
I103
sS'DH'
p556
I8
sS'IH2'
p557
I2
sS'IH0'
p558
I4
sS'IH1'
p559
I6
sS'AH0'
p560
I281
sS'AH1'
p561
I9
sS'JH'
p562
I689
sS'EH1'
p563
I23
sS'EY1'
p564
I4
sS'IY1'
p565
I4
sg35
I85
sg17
I3114
sg31
I47
sg19
I1
sg20
I162
sg21
I237
sg22
I107
sg23
I1130
sg24
I215
sg25
I51
sg26
I254
sg28
I260
sg51
I19
sg29
I139
sg30
I172
sS'OW1'
p566
I74
sS'OW0'
p567
I1
sS'AE1'
p568
I244
sS'AE2'
p569
I17
sS'ER0'
p570
I187
sS'HH'
p571
I5
sS'AA1'
p572
I265
sS'AA0'
p573
I2
stp574
Rp575
sg38
I17104027
sg39
F8559934.5
sbsS'AY2'
p576
g0
(g5
g6
Ntp577
Rp578
(dp579
g10
F0.5
sg11
I19695
sg12
g13
((dp580
g51
I53
sS'DH'
p581
I386
sS'IH2'
p582
I12
sS'IH0'
p583
I292
sS'UW0'
p584
I7
sS'AH0'
p585
I1472
sS'CH'
p586
I5
sS'JH'
p587
I11
sS'EH2'
p588
I1
sS'EH0'
p589
I2
sS'EH1'
p590
I72
sS'EY1'
p591
I2
sS'TH'
p592
I8
sS'IY1'
p593
I79
sS'AY1'
p594
I8
sS'AH1'
p595
I14
sS'IH1'
p596
I80
sg17
I2818
sg31
I18
sg19
I84
sg20
I757
sg21
I1068
sg22
I523
sS'AW1'
p597
I2
sg23
I1401
sg24
I358
sg25
I1149
sg26
I234
sg28
I1803
sS'AO1'
p598
I32
sg29
I576
sg52
I51
sg30
I5621
sS'OW1'
p599
I32
sS'OW0'
p600
I95
sS'AE1'
p601
I57
sS'AE0'
p602
I1
sS'AE2'
p603
I1
sS'ER0'
p604
I352
sS'ER1'
p605
I1
sS'AW0'
p606
I1
sS'HH'
p607
I51
sS'SH'
p608
I4
sS'AA1'
p609
I41
sS'AA2'
p610
I6
sg35
I54
stp611
Rp612
sg38
I17104027
sg39
F8571708.5
sbsS'CH'
p613
g0
(g5
g6
Ntp614
Rp615
(dp616
g10
F0.5
sg11
I85370
sg12
g13
((dp617
g51
I2140
sS'DH'
p618
I1608
sS'IH2'
p619
I319
sS'UW2'
p620
I2316
sS'IH0'
p621
I2860
sS'UW0'
p622
I2201
sS'AH2'
p623
I13
sS'AH0'
p624
I14319
sS'AH1'
p625
I1896
sS'JH'
p626
I286
sS'UH0'
p627
I3
sS'UH1'
p628
I96
sS'CH'
p629
I143
sS'EH0'
p630
I120
sS'EH1'
p631
I3063
sS'IY0'
p632
I1110
sS'EY1'
p633
I3594
sS'EY2'
p634
I4
sS'TH'
p635
I227
sS'AA1'
p636
I2808
sS'AY1'
p637
I1547
sS'UW1'
p638
I786
sS'AY2'
p639
I83
sg29
I280
sS'IH1'
p640
I6446
sg17
I1240
sg31
I348
sg19
I1015
sg20
I1748
sS'IY2'
p641
I11
sg21
I1815
sg22
I792
sS'AW1'
p642
I131
sg23
I330
sg24
I1075
sg25
I1859
sg26
I755
sg28
I2477
sS'AO1'
p643
I391
sS'AO0'
p644
I13
sg52
I645
sS'EH2'
p645
I286
sg30
I84
sS'OW1'
p646
I534
sS'OW0'
p647
I60
sS'OW2'
p648
I7
sS'AE1'
p649
I4465
sS'AE0'
p650
I78
sS'AE2'
p651
I29
sS'ER0'
p652
I9862
sS'ER1'
p653
I1414
sS'ER2'
p654
I330
sS'AW0'
p655
I5
sS'HH'
p656
I1303
sS'OY1'
p657
I705
sS'AY0'
p658
I147
sS'SH'
p659
I208
sS'IY1'
p660
I1733
sS'AA0'
p661
I6
sS'AA2'
p662
I27
sS'UH2'
p663
I20
sg35
I1119
sS'AO2'
p664
I35
stp665
Rp666
sg38
I17104027
sg39
F8637383.5
sbsg17
g0
(g5
g6
Ntp667
Rp668
(dp669
g10
F0.5
sg11
I650165
sg12
g13
((dp670
S'IH2'
p671
I5307
sS'IH0'
p672
I59795
sS'IH1'
p673
I32211
sS'AH2'
p674
I268
sS'AH0'
p675
I58238
sS'AH1'
p676
I30774
sS'JH'
p677
I2889
sS'EH2'
p678
I2022
sS'EH0'
p679
I965
sS'EH1'
p680
I13928
sS'EY1'
p681
I15339
sg386
I331
sS'EY2'
p682
I1477
sS'AY1'
p683
I8780
sS'AY0'
p684
I1117
sS'AY2'
p685
I683
sg29
I5661
sg35
I22988
sg17
I10064
sg19
I12961
sS'AW2'
p686
I188
sS'AW1'
p687
I5830
sg23
I9147
sg24
I10365
sg26
I26372
sg28
I24169
sS'AO1'
p688
I8014
sS'AO0'
p689
I210
sg30
I20011
sS'OY1'
p690
I91
sS'SH'
p691
I1826
sS'DH'
p692
I33116
sS'UW2'
p693
I56
sS'UW1'
p694
I19332
sS'UW0'
p695
I83
sS'HH'
p696
I13673
sS'CH'
p697
I1241
sS'UH0'
p698
I3
sS'UH1'
p699
I1512
sS'TH'
p700
I2054
sS'IY1'
p701
I12576
sS'IY0'
p702
I15660
sS'ZH'
p703
I10
sg31
I5283
sg20
I12137
sS'AA2'
p704
I1193
sg21
I14173
sg22
I10506
sg25
I20843
sg51
I18696
sg52
I6193
sS'AW0'
p705
I27
sS'OW1'
p706
I11774
sS'OW0'
p707
I5550
sS'OW2'
p708
I356
sS'AE1'
p709
I11529
sS'AE0'
p710
I587
sS'AE2'
p711
I448
sS'ER0'
p712
I25475
sS'ER1'
p713
I629
sS'ER2'
p714
I23
sS'AA1'
p715
I10303
sS'AA0'
p716
I258
sS'IY2'
p717
I2274
sS'AO2'
p718
I571
stp719
Rp720
sg38
I17104027
sg39
F9202178.5
sbsg19
g0
(g5
g6
Ntp721
Rp722
(dp723
g10
F0.5
sg11
I309966
sg12
g13
((dp724
S'IH2'
p725
I1191
sS'IH0'
p726
I6502
sS'IH1'
p727
I12539
sS'AH2'
p728
I426
sS'AH0'
p729
I15324
sS'AH1'
p730
I3437
sS'JH'
p731
I343
sS'EH2'
p732
I369
sS'EH0'
p733
I240
sS'EH1'
p734
I11544
sS'EY1'
p735
I4718
sS'EY0'
p736
I2
sS'EY2'
p737
I638
sS'OW2'
p738
I568
sS'AY1'
p739
I17562
sS'AY0'
p740
I53
sS'AY2'
p741
I3401
sg35
I1901
sg17
I1038
sg19
I957
sS'AW2'
p742
I6
sS'AW1'
p743
I2191
sg23
I842
sg24
I814
sg26
I49402
sg28
I14727
sS'AO1'
p744
I63124
sg29
I175
sg30
I26
sS'OY1'
p745
I126
sS'OY0'
p746
I3
sS'SH'
p747
I180
sS'DH'
p748
I6602
sS'UW2'
p749
I8
sS'UW1'
p750
I1116
sS'UW0'
p751
I39
sS'HH'
p752
I1218
sS'CH'
p753
I130
sS'UH2'
p754
I41
sS'UH0'
p755
I140
sS'UH1'
p756
I2065
sS'TH'
p757
I272
sS'IY1'
p758
I5170
sS'IY0'
p759
I1304
sS'ZH'
p760
I5
sg31
I480
sg20
I954
sS'IY2'
p761
I427
sg21
I950
sg22
I7555
sg25
I3673
sg51
I2180
sg52
I12074
sS'AW0'
p762
I228
sS'OW1'
p763
I3536
sS'OW0'
p764
I1422
sS'AO0'
p765
I282
sS'AE1'
p766
I10449
sS'AE0'
p767
I62
sS'AE2'
p768
I220
sS'ER0'
p769
I12103
sS'ER1'
p770
I8263
sS'ER2'
p771
I28
sS'AA1'
p772
I7990
sS'AA0'
p773
I113
sS'AA2'
p774
I114
sS'AO2'
p775
I4384
stp776
Rp777
sg38
I17104027
sg39
F8861979.5
sbsS'AW2'
p778
g0
(g5
g6
Ntp779
Rp780
(dp781
g10
F0.5
sg11
I4132
sg12
g13
((dp782
S'AO1'
p783
I5
sS'DH'
p784
I40
sS'IH2'
p785
I5
sS'IH0'
p786
I8
sS'IH1'
p787
I13
sS'AH2'
p788
I1
sS'AH0'
p789
I12
sg35
I25
sS'JH'
p790
I2
sS'EH2'
p791
I1
sS'EH0'
p792
I2
sS'EH1'
p793
I2300
sS'TH'
p794
I75
sS'AA1'
p795
I1
sS'AY1'
p796
I24
sS'CH'
p797
I1
sg17
I27
sg31
I13
sg19
I7
sg20
I11
sg21
I52
sg22
I14
sg23
I732
sg24
I8
sg25
I175
sg26
I35
sg28
I407
sg51
I21
sg29
I1
sg52
I4
sg30
I6
sS'AE1'
p798
I5
sS'ER0'
p799
I91
sS'HH'
p800
I6
sS'IY1'
p801
I2
stp802
Rp803
sg38
I17104027
sg39
F8556145.5
sbsg687
g0
(g5
g6
Ntp804
Rp805
(dp806
g10
F0.5
sg11
I76699
sg12
g13
((dp807
g51
I864
sS'DH'
p808
I1500
sS'IH2'
p809
I71
sS'IH0'
p810
I412
sS'IH1'
p811
I755
sS'AH2'
p812
I22
sS'HH'
p813
I494
sS'AH1'
p814
I73
sS'JH'
p815
I123
sS'EH2'
p816
I7
sS'EH0'
p817
I7
sS'EH1'
p818
I110
sS'EY1'
p819
I7
sS'TH'
p820
I671
sS'AA1'
p821
I151
sS'AY1'
p822
I550
sS'AY0'
p823
I1
sS'AA0'
p824
I16
sg35
I421
sS'ZH'
p825
I2
sg17
I2621
sg31
I146
sg19
I319
sg20
I861
sg21
I1355
sg22
I582
sS'AW1'
p826
I20
sg23
I16880
sg24
I229
sg25
I2693
sg26
I202
sg28
I32013
sS'AO1'
p827
I153
sg29
I35
sg52
I506
sg30
I1240
sS'OW1'
p828
I77
sS'AO0'
p829
I2
sS'AE1'
p830
I160
sS'AE0'
p831
I7
sS'AE2'
p832
I4
sS'ER0'
p833
I8809
sS'ER1'
p834
I8
sS'UW1'
p835
I1
sS'AW0'
p836
I1
sS'CH'
p837
I133
sS'AH0'
p838
I1150
sS'SH'
p839
I163
sS'IY1'
p840
I60
sS'IY0'
p841
I5
sS'AA2'
p842
I2
sS'AY2'
p843
I1
sS'AO2'
p844
I4
stp845
Rp846
sg38
I17104027
sg39
F8628712.5
sbsg23
g0
(g5
g6
Ntp847
Rp848
(dp849
g10
F0.5
sg11
I1159266
sg12
g13
((dp850
g4
I4981
sS'IH0'
p851
I27333
sS'IH1'
p852
I20286
sS'AH2'
p853
I549
sS'AH0'
p854
I74918
sS'AH1'
p855
I25291
sS'JH'
p856
I13572
sS'AO0'
p857
I338
sS'EH2'
p858
I4443
sS'EH0'
p859
I709
sS'EH1'
p860
I20454
sS'EY1'
p861
I9438
sS'EY0'
p862
I44
sg416
I1372
sS'AY1'
p863
I10465
sS'AY0'
p864
I311
sS'AY2'
p865
I1331
sg35
I15414
sg17
I190712
sg19
I24031
sS'AW2'
p866
I89
sS'AW1'
p867
I8026
sg23
I6531
sg24
I12818
sg26
I11935
sg28
I162194
sS'AO1'
p868
I9854
sg29
I9354
sg30
I44992
sS'OY2'
p869
I111
sS'OY1'
p870
I1019
sS'OY0'
p871
I16
sS'SH'
p872
I8431
sS'DH'
p873
I51537
sS'UW2'
p874
I273
sS'UW1'
p875
I11006
sS'UW0'
p876
I264
sS'HH'
p877
I14814
sS'CH'
p878
I5797
sS'UH2'
p879
I22
sS'UH0'
p880
I33
sS'UH1'
p881
I99
sS'TH'
p882
I3810
sS'AA1'
p883
I52216
sS'IY0'
p884
I36223
sS'ZH'
p885
I53
sg31
I6269
sg20
I25393
sS'IY2'
p886
I1762
sg21
I17993
sg22
I18815
sg25
I84185
sg51
I18365
sg52
I16223
sS'AW0'
p887
I45
sS'OW1'
p888
I29341
sS'OW0'
p889
I1273
sS'OW2'
p890
I239
sS'AE1'
p891
I14432
sS'AE0'
p892
I846
sS'AE2'
p893
I788
sS'ER0'
p894
I10371
sS'ER1'
p895
I773
sS'ER2'
p896
I1
sS'IY1'
p897
I10342
sS'AA0'
p898
I2834
sS'AA2'
p899
I876
sS'AO2'
p900
I591
stp901
Rp902
sg38
I17104027
sg39
F9711279.5
sbsg24
g0
(g5
g6
Ntp903
Rp904
(dp905
g10
F0.5
sg11
I371474
sg12
g13
((dp906
S'IH2'
p907
I678
sS'IH0'
p908
I5273
sS'IH1'
p909
I14118
sS'AH2'
p910
I270
sS'AH0'
p911
I37495
sS'AH1'
p912
I6651
sS'JH'
p913
I238
sS'EH2'
p914
I1262
sS'EH0'
p915
I416
sS'EH1'
p916
I16967
sS'EY1'
p917
I9034
sS'EY0'
p918
I20
sS'EY2'
p919
I802
sS'OW2'
p920
I97
sS'AY1'
p921
I2655
sS'AY0'
p922
I208
sS'AY2'
p923
I569
sS'CH'
p924
I982
sg17
I1368
sg19
I2108
sS'AW2'
p925
I84
sS'AW1'
p926
I3733
sS'AW0'
p927
I459
sg24
I842
sg26
I64618
sg28
I14638
sS'AO1'
p928
I11131
sg29
I199
sg30
I21
sS'OY2'
p929
I156
sS'OY1'
p930
I4763
sS'OY0'
p931
I14
sS'SH'
p932
I3905
sS'DH'
p933
I3242
sS'UW2'
p934
I35
sS'UW1'
p935
I901
sS'UW0'
p936
I34
sS'HH'
p937
I809
sg35
I1248
sS'UH2'
p938
I1484
sS'UH1'
p939
I3240
sS'TH'
p940
I324
sS'AA1'
p941
I18137
sS'IY0'
p942
I3888
sS'ZH'
p943
I2
sg31
I874
sg20
I1176
sS'AA2'
p944
I2180
sg21
I2187
sg22
I33563
sg25
I10442
sg51
I2384
sg52
I6212
sg23
I394
sS'OW1'
p945
I10100
sS'OW0'
p946
I291
sS'AO0'
p947
I428
sS'AE1'
p948
I11695
sS'AE0'
p949
I179
sS'AE2'
p950
I1031
sS'ER0'
p951
I16925
sS'ER1'
p952
I6790
sS'ER2'
p953
I416
sS'IY1'
p954
I23792
sS'AA0'
p955
I615
sS'IY2'
p956
I411
sS'AO2'
p957
I271
stp958
Rp959
sg38
I17104027
sg39
F8923487.5
sbsg26
g0
(g5
g6
Ntp960
Rp961
(dp962
g10
F0.5
sg11
I820429
sg12
g13
((dp963
S'IH2'
p964
I4481
sS'IH0'
p965
I42557
sS'IH1'
p966
I37102
sS'AH2'
p967
I179
sS'AH0'
p968
I66675
sg143
I53252
sS'JH'
p969
I6899
sS'EH2'
p970
I8426
sS'EH0'
p971
I1621
sS'EH1'
p972
I33982
sg335
I37068
sS'EY0'
p973
I238
sS'EY2'
p974
I2070
sg496
I47983
sS'AY0'
p975
I641
sS'AY2'
p976
I623
sg29
I2097
sS'CH'
p977
I2479
sg17
I27711
sg19
I7619
sS'AW2'
p978
I476
sS'AW1'
p979
I3114
sg23
I10123
sg24
I9277
sg26
I5386
sg28
I45467
sS'AO1'
p980
I9722
sS'AO0'
p981
I176
sg30
I9857
sS'OY2'
p982
I42
sS'OY1'
p983
I1288
sS'OY0'
p984
I60
sS'SH'
p985
I2166
sS'DH'
p986
I20676
sS'UW2'
p987
I1349
sS'UW1'
p988
I17469
sS'UW0'
p989
I1734
sS'HH'
p990
I6013
sg35
I8446
sS'UH2'
p991
I33
sS'UH0'
p992
I1
sS'UH1'
p993
I286
sS'TH'
p994
I2270
sS'IY1'
p995
I33598
sS'IY0'
p996
I54541
sS'ZH'
p997
I15
sg31
I7392
sg20
I16702
sS'AA2'
p998
I1074
sg21
I25965
sg22
I9059
sg25
I21682
sg51
I10600
sg52
I5438
sS'AW0'
p999
I54
sS'OW1'
p1000
I20230
sS'OW0'
p1001
I2893
sS'OW2'
p1002
I1648
sS'AE1'
p1003
I23335
sS'AE0'
p1004
I3107
sS'AE2'
p1005
I6737
sS'ER0'
p1006
I2153
sS'ER1'
p1007
I80
sS'ER2'
p1008
I2
sS'AA1'
p1009
I28720
sS'AA0'
p1010
I620
sS'IY2'
p1011
I5513
sS'AO2'
p1012
I137
stp1013
Rp1014
sg38
I17104027
sg39
F9372442.5
sbsg28
g0
(g5
g6
Ntp1015
Rp1016
(dp1017
g10
F0.5
sg11
I1194171
sg12
g13
((dp1018
S'IH2'
p1019
I4915
sS'IH0'
p1020
I62822
sS'IH1'
p1021
I48656
sS'AH2'
p1022
I897
sS'AH0'
p1023
I124275
sS'AH1'
p1024
I25621
sS'JH'
p1025
I3868
sS'AO0'
p1026
I235
sS'EH2'
p1027
I3422
sS'EH0'
p1028
I3247
sS'EH1'
p1029
I31341
sS'EY1'
p1030
I22036
sS'EY0'
p1031
I83
sS'EY2'
p1032
I1290
sS'AY1'
p1033
I25858
sS'AY0'
p1034
I490
sS'AY2'
p1035
I1914
sS'CH'
p1036
I1520
sg17
I14577
sg19
I17707
sS'AW2'
p1037
I126
sS'AW1'
p1038
I3336
sg23
I12058
sg24
I15753
sg26
I75638
sg28
I26414
sS'AO1'
p1039
I15704
sg29
I2946
sg30
I211
sS'OY2'
p1040
I5
sS'OY1'
p1041
I170
sS'SH'
p1042
I3290
sS'DH'
p1043
I55121
sS'UW2'
p1044
I1516
sS'UW1'
p1045
I132326
sS'UW0'
p1046
I5896
sS'HH'
p1047
I21625
sg35
I21669
sS'UH2'
p1048
I34
sS'UH0'
p1049
I5
sS'UH1'
p1050
I1478
sS'TH'
p1051
I3236
sS'IY1'
p1052
I14665
sS'IY0'
p1053
I24888
sS'ZH'
p1054
I11
sg31
I7548
sg20
I20352
sS'IY2'
p1055
I3373
sg21
I22838
sg22
I23008
sg25
I105036
sg51
I41072
sg52
I12966
sS'AW0'
p1056
I80
sS'OW1'
p1057
I6871
sS'OW0'
p1058
I2361
sS'OW2'
p1059
I654
sS'AE1'
p1060
I23551
sS'AE0'
p1061
I782
sS'AE2'
p1062
I2460
sS'ER0'
p1063
I53815
sS'ER1'
p1064
I10785
sS'ER2'
p1065
I619
sS'AA1'
p1066
I19461
sS'AA0'
p1067
I826
sS'AA2'
p1068
I871
sS'AO2'
p1069
I1947
stp1070
Rp1071
sg38
I17104027
sg39
F9746184.5
sbsS'AO1'
p1072
g0
(g5
g6
Ntp1073
Rp1074
(dp1075
g10
F0.5
sg11
I246858
sg12
g13
((dp1076
S'AO1'
p1077
I62
sS'DH'
p1078
I412
sS'IH2'
p1079
I26
sS'IH0'
p1080
I445
sS'IH1'
p1081
I161
sS'AH0'
p1082
I446
sS'AH1'
p1083
I120
sS'JH'
p1084
I41
sS'EH2'
p1085
I3
sS'EH0'
p1086
I409
sS'EH1'
p1087
I55
sS'NG'
p1088
I7466
sS'EY1'
p1089
I4
sS'TH'
p1090
I999
sS'AA1'
p1091
I52
sS'AY1'
p1092
I44
sS'IY0'
p1093
I7
sS'CH'
p1094
I15
sg17
I1106
sg31
I735
sg19
I10209
sg20
I3632
sg21
I196
sg22
I39915
sS'AW1'
p1095
I7
sg23
I4039
sg24
I108
sg25
I5582
sg26
I157848
sg28
I5062
sg51
I188
sg29
I16
sg52
I275
sg30
I6635
sS'OW1'
p1096
I26
sS'AE1'
p1097
I96
sS'AE0'
p1098
I2
sS'AE2'
p1099
I2
sS'ER0'
p1100
I3
sS'AW0'
p1101
I1
sS'HH'
p1102
I110
sS'SH'
p1103
I103
sS'IY1'
p1104
I11
sS'AA0'
p1105
I4
sg35
I178
sS'AO2'
p1106
I2
stp1107
Rp1108
sg38
I17104027
sg39
F8798871.5
sbsg29
g0
(g5
g6
Ntp1109
Rp1110
(dp1111
g10
F0.5
sg11
I323061
sg12
g13
((dp1112
S'IH2'
p1113
I2480
sS'IH0'
p1114
I19316
sS'IH1'
p1115
I11760
sS'AH2'
p1116
I120
sS'AH0'
p1117
I30499
sS'AH1'
p1118
I2237
sS'JH'
p1119
I1775
sS'AO0'
p1120
I264
sS'EH2'
p1121
I779
sS'EH0'
p1122
I411
sS'EH1'
p1123
I16296
sS'EY1'
p1124
I4819
sS'EY0'
p1125
I81
sS'EY2'
p1126
I664
sS'AY1'
p1127
I8791
sS'AY0'
p1128
I666
sS'AY2'
p1129
I245
sg35
I7209
sg17
I8714
sg19
I4058
sS'AW2'
p1130
I4
sS'AW1'
p1131
I1028
sg23
I4321
sg24
I5847
sg26
I7245
sg28
I8121
sS'AO1'
p1132
I2597
sg29
I1213
sg30
I6375
sS'OY2'
p1133
I8
sS'OY1'
p1134
I1665
sS'OY0'
p1135
I26
sS'SH'
p1136
I542
sS'DH'
p1137
I38414
sS'UW2'
p1138
I8
sS'UW1'
p1139
I65
sS'HH'
p1140
I6040
sS'CH'
p1141
I681
sS'UH1'
p1142
I4
sS'TH'
p1143
I1114
sS'AA1'
p1144
I3460
sS'IY0'
p1145
I4039
sS'ZH'
p1146
I3
sg31
I3590
sg20
I8396
sS'AA2'
p1147
I478
sg21
I8161
sg22
I4430
sg25
I10279
sg51
I5072
sg52
I7381
sS'AW0'
p1148
I20
sS'OW1'
p1149
I2132
sS'OW0'
p1150
I272
sS'OW2'
p1151
I54
sS'AE1'
p1152
I8789
sS'AE0'
p1153
I638
sS'AE2'
p1154
I540
sS'ER0'
p1155
I32515
sS'ER1'
p1156
I9232
sS'ER2'
p1157
I495
sS'IY1'
p1158
I6049
sS'AA0'
p1159
I324
sS'IY2'
p1160
I124
sS'AO2'
p1161
I86
stp1162
Rp1163
sg38
I17104027
sg39
F8875074.5
sbsg30
g0
(g5
g6
Ntp1164
Rp1165
(dp1166
g10
F0.5
sg11
I452584
sg12
g13
((dp1167
S'IH2'
p1168
I4087
sS'IH0'
p1169
I22615
sS'IH1'
p1170
I15941
sS'AH2'
p1171
I282
sS'AH0'
p1172
I60399
sS'AH1'
p1173
I17341
sS'JH'
p1174
I3043
sS'EH2'
p1175
I675
sS'EH0'
p1176
I661
sS'EH1'
p1177
I6934
sS'EY1'
p1178
I2602
sS'EY0'
p1179
I4
sS'EY2'
p1180
I65
sS'AY1'
p1181
I7621
sS'AY0'
p1182
I172
sS'AY2'
p1183
I72
sg29
I2462
sS'CH'
p1184
I1010
sg17
I20428
sg19
I14650
sS'AW2'
p1185
I8
sS'AW1'
p1186
I1386
sg23
I17955
sg24
I11678
sg26
I12992
sg28
I20261
sS'AO1'
p1187
I6502
sS'AO0'
p1188
I440
sg30
I128
sS'OY2'
p1189
I2
sS'OY1'
p1190
I26
sS'SH'
p1191
I1872
sS'DH'
p1192
I33693
sS'UW2'
p1193
I9
sS'UW1'
p1194
I517
sS'UW0'
p1195
I5
sS'HH'
p1196
I13180
sg35
I14997
sS'UH1'
p1197
I84
sS'TH'
p1198
I1432
sS'AA1'
p1199
I13457
sS'IY0'
p1200
I2731
sS'ZH'
p1201
I7
sg31
I6556
sg20
I13358
sS'IY2'
p1202
I524
sg21
I11417
sg22
I10098
sg25
I18874
sg51
I22506
sg52
I5950
sS'AW0'
p1203
I13
sS'OW1'
p1204
I3036
sS'OW0'
p1205
I227
sS'OW2'
p1206
I181
sS'AE1'
p1207
I13128
sS'AE0'
p1208
I396
sS'AE2'
p1209
I462
sS'ER0'
p1210
I4562
sS'ER1'
p1211
I1497
sS'IY1'
p1212
I4843
sS'AA0'
p1213
I188
sS'AA2'
p1214
I132
sS'AO2'
p1215
I210
stp1216
Rp1217
sg38
I17104027
sg39
F9004597.5
sbsg869
g0
(g5
g6
Ntp1218
Rp1219
(dp1220
g10
F0.5
sg11
I595
sg12
g13
((dp1221
S'CH'
p1222
I1
sg17
I219
sS'DH'
p1223
I1
sg19
I1
sS'IH0'
p1224
I1
sS'IH1'
p1225
I3
sg21
I7
sg22
I26
sg23
I157
sg24
I13
sS'AH0'
p1226
I5
sS'AH1'
p1227
I1
sg28
I66
sg51
I14
sg29
I2
sg30
I26
sS'OW1'
p1228
I2
sS'ER1'
p1229
I1
sS'AE1'
p1230
I4
sS'ER0'
p1231
I1
sg31
I4
sS'EH1'
p1232
I1
sS'HH'
p1233
I2
sS'AO1'
p1234
I1
sg25
I15
sg26
I3
sS'AA1'
p1235
I4
sg35
I1
sS'AY1'
p1236
I1
sg20
I12
stp1237
Rp1238
sg38
I17104027
sg39
F8552608.5
sbsg930
g0
(g5
g6
Ntp1239
Rp1240
(dp1241
g10
F0.5
sg11
I13297
sg12
g13
((dp1242
g51
I57
sS'DH'
p1243
I143
sS'IH2'
p1244
I6
sS'IH0'
p1245
I261
sS'IH1'
p1246
I71
sS'HH'
p1247
I71
sS'AH1'
p1248
I19
sS'JH'
p1249
I17
sS'EH1'
p1250
I32
sS'EY1'
p1251
I5
sS'TH'
p1252
I3
sS'AA1'
p1253
I17
sS'AY1'
p1254
I18
sS'IY0'
p1255
I161
sS'CH'
p1256
I19
sS'ZH'
p1257
I2
sg17
I1327
sg31
I21
sg19
I47
sg20
I132
sg21
I231
sg22
I1165
sS'AW1'
p1258
I9
sg23
I5399
sg24
I26
sg25
I1788
sg26
I52
sg28
I409
sS'AO1'
p1259
I11
sg29
I14
sg52
I76
sg30
I766
sS'OW1'
p1260
I4
sS'OW0'
p1261
I4
sS'AO0'
p1262
I2
sS'AE1'
p1263
I37
sS'AE0'
p1264
I2
sS'AE2'
p1265
I2
sS'ER0'
p1266
I319
sS'ER1'
p1267
I4
sS'AH0'
p1268
I486
sS'OY1'
p1269
I1
sS'SH'
p1270
I7
sS'IY1'
p1271
I6
sS'AA0'
p1272
I1
sg35
I46
sS'AO2'
p1273
I1
stp1274
Rp1275
sg38
I17104027
sg39
F8565310.5
sbsS'OY0'
p1276
g0
(g5
g6
Ntp1277
Rp1278
(dp1279
g10
F0.5
sg11
I133
sg12
g13
((dp1280
g35
I1
sg17
I63
sg19
I3
sg25
I22
sg20
I3
sg23
I10
sg24
I1
sS'AH0'
p1281
I1
sg26
I3
sg28
I9
sS'AO1'
p1282
I1
sg29
I1
sg30
I3
sS'AE1'
p1283
I1
sS'ER0'
p1284
I6
sS'HH'
p1285
I1
sS'AH1'
p1286
I1
sS'IY1'
p1287
I1
sS'AY1'
p1288
I2
stp1289
Rp1290
sg38
I17104027
sg39
F8552146.5
sbsg65
g0
(g5
g6
Ntp1291
Rp1292
(dp1293
g10
F0.5
sg11
I126815
sg12
g13
((dp1294
S'AO1'
p1295
I1518
sS'DH'
p1296
I451
sS'IH2'
p1297
I1470
sS'UW2'
p1298
I509
sS'IH0'
p1299
I2268
sS'IH1'
p1300
I1775
sS'AH0'
p1301
I74664
sS'AH1'
p1302
I965
sS'JH'
p1303
I157
sS'UH1'
p1304
I10565
sS'AO0'
p1305
I7
sg30
I5
sS'EH2'
p1306
I93
sS'EH0'
p1307
I6
sS'EH1'
p1308
I2069
sS'IY0'
p1309
I2086
sS'EY1'
p1310
I1113
sS'EY2'
p1311
I33
sS'TH'
p1312
I19
sS'AA1'
p1313
I2021
sS'AY1'
p1314
I273
sS'UW1'
p1315
I704
sS'AY2'
p1316
I15
sS'UW0'
p1317
I3461
sg17
I379
sg31
I135
sg19
I285
sg20
I502
sS'AA2'
p1318
I212
sg21
I1053
sS'AW2'
p1319
I1
sS'AW1'
p1320
I306
sg22
I1231
sg24
I432
sg25
I638
sg26
I560
sg28
I2266
sg51
I596
sg29
I78
sg52
I151
sg23
I396
sS'OW1'
p1321
I2848
sS'OW0'
p1322
I3
sS'OW2'
p1323
I53
sS'AE1'
p1324
I1551
sS'AE0'
p1325
I40
sS'AE2'
p1326
I29
sS'ER0'
p1327
I962
sS'ER1'
p1328
I143
sS'CH'
p1329
I14
sS'HH'
p1330
I378
sS'OY1'
p1331
I2
sS'AY0'
p1332
I14
sS'SH'
p1333
I20
sS'IY1'
p1334
I4701
sS'AA0'
p1335
I75
sS'IY2'
p1336
I63
sg35
I367
sS'AO2'
p1337
I84
stp1338
Rp1339
sg38
I17104027
sg39
F8678828.5
sbsg64
g0
(g5
g6
Ntp1340
Rp1341
(dp1342
g10
F0.5
sg11
I475500
sg12
g13
((dp1343
g51
I781
sS'DH'
p1344
I7000
sS'IH2'
p1345
I268
sS'IH0'
p1346
I411
sS'IH1'
p1347
I34233
sS'AH2'
p1348
I9
sS'AH0'
p1349
I242712
sS'AH1'
p1350
I1266
sS'JH'
p1351
I218
sS'EH2'
p1352
I87
sS'EH0'
p1353
I1041
sS'EH1'
p1354
I41882
sS'EY1'
p1355
I20633
sS'EY2'
p1356
I4
sS'TH'
p1357
I80
sS'IY1'
p1358
I6376
sS'AY1'
p1359
I204
sS'UW1'
p1360
I3
sS'AA0'
p1361
I33
sg35
I668
sg17
I758
sg31
I414
sg19
I551
sg20
I841
sS'AA2'
p1362
I25
sg21
I1588
sg22
I492
sS'AW1'
p1363
I310
sg23
I668
sg24
I700
sg25
I1576
sg26
I681
sg28
I503
sS'AO1'
p1364
I470
sg29
I220
sg52
I789
sg30
I203
sS'OW1'
p1365
I7758
sS'OW0'
p1366
I5
sS'AO0'
p1367
I12
sS'AE1'
p1368
I73339
sS'AE0'
p1369
I25
sS'AE2'
p1370
I47
sS'ER0'
p1371
I24050
sS'ER1'
p1372
I20
sS'ER2'
p1373
I4
sS'AW0'
p1374
I2
sS'CH'
p1375
I94
sS'HH'
p1376
I953
sS'OY1'
p1377
I8
sS'AY0'
p1378
I18
sS'SH'
p1379
I74
sS'AA1'
p1380
I179
sS'IY0'
p1381
I189
sS'IY2'
p1382
I1
sS'AY2'
p1383
I2
sS'AO2'
p1384
I22
stp1385
Rp1386
sg38
I17104027
sg39
F9027513.5
sbsS'UW2'
p1387
g0
(g5
g6
Ntp1388
Rp1389
(dp1390
g10
F0.5
sg11
I12549
sg12
g13
((dp1391
g51
I71
sS'DH'
p1392
I17
sS'IH2'
p1393
I2
sS'IH0'
p1394
I45
sS'IH1'
p1395
I17
sS'HH'
p1396
I23
sS'AH1'
p1397
I44
sS'JH'
p1398
I103
sS'EH2'
p1399
I18
sS'EH0'
p1400
I5
sS'EH1'
p1401
I14
sS'EY1'
p1402
I5
sS'TH'
p1403
I13
sS'AA1'
p1404
I20
sS'AY1'
p1405
I8
sS'AA0'
p1406
I11
sg35
I88
sg17
I751
sg31
I96
sg19
I84
sg20
I50
sg21
I302
sg22
I335
sS'AW1'
p1407
I2
sg23
I3634
sg24
I1357
sg25
I148
sg26
I20
sg28
I1839
sS'AO1'
p1408
I15
sg29
I44
sg52
I8
sg30
I283
sS'OW1'
p1409
I28
sS'AE1'
p1410
I26
sS'ER0'
p1411
I10
sS'CH'
p1412
I8
sS'AH0'
p1413
I2959
sS'SH'
p1414
I42
sS'IY1'
p1415
I2
sS'IY0'
p1416
I1
sS'AO2'
p1417
I1
stp1418
Rp1419
sg38
I17104027
sg39
F8564562.5
sbsg1045
g0
(g5
g6
Ntp1420
Rp1421
(dp1422
g10
F0.5
sg11
I306163
sg12
g13
((dp1423
g51
I11533
sS'DH'
p1424
I17530
sS'IH2'
p1425
I2300
sS'IH0'
p1426
I6244
sS'IH1'
p1427
I3784
sS'AH2'
p1428
I357
sS'HH'
p1429
I11172
sS'AH1'
p1430
I1786
sS'JH'
p1431
I2260
sS'UW1'
p1432
I19
sS'AO0'
p1433
I102
sg30
I18740
sS'EH2'
p1434
I130
sS'EH0'
p1435
I582
sS'EH1'
p1436
I4528
sS'IY0'
p1437
I305
sS'NG'
p1438
I27
sS'EY1'
p1439
I339
sS'EY0'
p1440
I2
sS'EY2'
p1441
I8
sS'TH'
p1442
I3571
sS'AA1'
p1443
I4747
sS'AY1'
p1444
I1352
sS'AY0'
p1445
I101
sS'AY2'
p1446
I5
sS'CH'
p1447
I2253
sS'ZH'
p1448
I2185
sg17
I19310
sg31
I7102
sg19
I6460
sg20
I16213
sS'AA2'
p1449
I66
sg21
I18005
sS'AW2'
p1450
I1
sS'AW1'
p1451
I492
sg22
I10387
sg24
I13997
sg25
I27705
sg26
I8174
sg28
I14986
sS'AO1'
p1452
I1983
sg29
I6784
sg52
I7281
sg23
I13546
sS'OW1'
p1453
I756
sS'OW0'
p1454
I295
sS'OW2'
p1455
I20
sS'AE1'
p1456
I3035
sS'AE0'
p1457
I365
sS'AE2'
p1458
I104
sS'ER0'
p1459
I1009
sS'ER1'
p1460
I139
sS'ER2'
p1461
I8
sS'AW0'
p1462
I15
sS'AH0'
p1463
I10392
sS'OY1'
p1464
I12
sS'SH'
p1465
I5161
sS'IY1'
p1466
I883
sS'AA0'
p1467
I142
sS'IY2'
p1468
I9
sg35
I15296
sS'AO2'
p1469
I68
stp1470
Rp1471
sg38
I17104027
sg39
F8858176.5
sbsg1317
g0
(g5
g6
Ntp1472
Rp1473
(dp1474
g10
F0.5
sg11
I29057
sg12
g13
((dp1475
g51
I742
sS'DH'
p1476
I2354
sS'IH2'
p1477
I127
sS'IH0'
p1478
I474
sS'IH1'
p1479
I520
sS'AH2'
p1480
I2
sS'HH'
p1481
I340
sS'AH1'
p1482
I464
sS'JH'
p1483
I428
sS'EH2'
p1484
I175
sS'EH0'
p1485
I10
sS'EH1'
p1486
I958
sS'EY1'
p1487
I1290
sS'EY0'
p1488
I14
sS'EY2'
p1489
I157
sS'TH'
p1490
I77
sS'AA1'
p1491
I173
sS'AY1'
p1492
I126
sS'UW1'
p1493
I5
sS'AA0'
p1494
I9
sg35
I465
sS'ZH'
p1495
I5
sg17
I2157
sg31
I98
sg19
I247
sg20
I598
sS'IY2'
p1496
I28
sg21
I1645
sg22
I700
sS'AW1'
p1497
I257
sg23
I1142
sg24
I686
sg25
I962
sg26
I291
sS'AO2'
p1498
I9
sS'AO1'
p1499
I120
sg29
I217
sg52
I464
sg30
I1734
sS'OW1'
p1500
I117
sS'OW0'
p1501
I6
sS'OW2'
p1502
I1
sS'AE1'
p1503
I862
sS'AE0'
p1504
I25
sS'AE2'
p1505
I11
sS'ER0'
p1506
I3
sS'ER1'
p1507
I9
sS'CH'
p1508
I27
sS'AH0'
p1509
I4851
sS'OY1'
p1510
I1
sS'AY0'
p1511
I1
sS'SH'
p1512
I26
sS'IY1'
p1513
I158
sS'IY0'
p1514
I2
sS'AA2'
p1515
I1
sg28
I2686
stp1516
Rp1517
sg38
I17104027
sg39
F8581070.5
sbsg1047
g0
(g5
g6
Ntp1518
Rp1519
(dp1520
g10
F0.5
sg11
I182097
sg12
g13
((dp1521
S'AO1'
p1522
I2182
sS'IH2'
p1523
I85
sS'UW2'
p1524
I27
sS'UW1'
p1525
I11886
sS'IH1'
p1526
I15617
sS'AH2'
p1527
I2
sS'AH0'
p1528
I871
sS'AH1'
p1529
I2053
sS'UH2'
p1530
I253
sS'UH0'
p1531
I50
sS'UH1'
p1532
I312
sS'AA0'
p1533
I171
sS'EH2'
p1534
I431
sS'EH0'
p1535
I49
sS'EH1'
p1536
I12550
sS'EY1'
p1537
I2421
sS'EY0'
p1538
I16
sS'EY2'
p1539
I10
sS'IY1'
p1540
I19823
sS'AY1'
p1541
I5899
sS'IH0'
p1542
I1903
sS'AY2'
p1543
I404
sS'UW0'
p1544
I253
sS'AA2'
p1545
I507
sg21
I2
sg778
I2768
sS'AW1'
p1546
I10250
sS'AW0'
p1547
I11
sg26
I63
sS'AO2'
p1548
I273
sg51
I37
sS'AO0'
p1549
I14
sg52
I3167
sS'OW1'
p1550
I7990
sS'OW0'
p1551
I297
sS'OW2'
p1552
I1797
sS'AE1'
p1553
I64049
sS'AE0'
p1554
I79
sS'AE2'
p1555
I223
sS'ER0'
p1556
I290
sS'ER1'
p1557
I4262
sS'ER2'
p1558
I4
sS'OY1'
p1559
I39
sS'AY0'
p1560
I233
sS'AA1'
p1561
I8397
sS'IY0'
p1562
I39
sS'IY2'
p1563
I38
stp1564
Rp1565
sg38
I17104027
sg39
F8734110.5
sbsg35
g0
(g5
g6
Ntp1566
Rp1567
(dp1568
g10
F0.5
sg11
I335461
sg12
g13
((dp1569
S'IH2'
p1570
I138
sS'IH0'
p1571
I24191
sS'IH1'
p1572
I21398
sS'AH2'
p1573
I47
sS'AH0'
p1574
I32942
sS'AH1'
p1575
I27610
sg175
I22328
sS'EH2'
p1576
I261
sS'EH0'
p1577
I107
sS'EH1'
p1578
I9391
sS'EY1'
p1579
I6529
sS'EY0'
p1580
I47
sS'EY2'
p1581
I404
sS'AY1'
p1582
I24589
sS'AY0'
p1583
I946
sS'AY2'
p1584
I466
sg29
I1092
sg35
I236
sg17
I967
sg19
I216
sg22
I19683
sS'AW1'
p1585
I14304
sS'AW0'
p1586
I19
sg24
I159
sg26
I14224
sg28
I877
sS'AO1'
p1587
I4416
sS'AO0'
p1588
I55
sg30
I3073
sS'OY2'
p1589
I56
sS'OY1'
p1590
I664
sS'OY0'
p1591
I2
sS'SH'
p1592
I35
sS'DH'
p1593
I227
sS'UW2'
p1594
I23
sS'UW1'
p1595
I1120
sS'UW0'
p1596
I71
sS'HH'
p1597
I221
sS'CH'
p1598
I17
sS'UH2'
p1599
I363
sS'UH0'
p1600
I20
sS'UH1'
p1601
I3777
sS'TH'
p1602
I17
sS'IY1'
p1603
I41422
sS'IY0'
p1604
I3586
sg31
I98
sg20
I371
sS'AA2'
p1605
I1552
sg21
I602
sS'AW2'
p1606
I58
sg25
I3243
sg51
I342
sg52
I2877
sg23
I163
sS'OW1'
p1607
I4291
sS'OW0'
p1608
I618
sS'OW2'
p1609
I214
sS'AE1'
p1610
I11601
sS'AE0'
p1611
I380
sS'AE2'
p1612
I429
sS'ER0'
p1613
I12536
sS'ER1'
p1614
I2408
sS'ER2'
p1615
I566
sS'AA1'
p1616
I8548
sS'AA0'
p1617
I435
sS'IY2'
p1618
I654
sS'AO2'
p1619
I1139
stp1620
Rp1621
sg38
I17104027
sg39
F8887474.5
sbsS'UH2'
p1622
g0
(g5
g6
Ntp1623
Rp1624
(dp1625
g10
F0.5
sg11
I3353
sg12
g13
((dp1626
g17
I470
sg20
I447
sg21
I25
sg22
I194
sg25
I44
sS'SH'
p1627
I23
sg28
I1442
sg26
I708
stp1628
Rp1629
sg38
I17104027
sg39
F8555366.5
sbsg755
g0
(g5
g6
Ntp1630
Rp1631
(dp1632
g10
F0.5
sg11
I805
sg12
g13
((dp1633
g17
I58
sg20
I7
sg21
I2
sg22
I490
sg24
I17
sS'HH'
p1634
I59
sS'SH'
p1635
I2
sg28
I11
sg26
I159
stp1636
Rp1637
sg38
I17104027
sg39
F8552818.5
sbsg756
g0
(g5
g6
Ntp1638
Rp1639
(dp1640
g10
F0.5
sg11
I64301
sg12
g13
((dp1641
S'CH'
p1642
I75
sg17
I35316
sg31
I71
sg19
I18
sg20
I9674
sg21
I383
sg22
I3161
sg23
I26
sg24
I18
sg25
I23
sg26
I12120
sS'JH'
p1643
I6
sg28
I2651
sg30
I13
sS'NG'
p1644
I18
sS'SH'
p1645
I728
stp1646
Rp1647
sg38
I17104027
sg39
F8616314.5
sbsg275
g0
(g5
g6
Ntp1648
Rp1649
(dp1650
g10
F0.5
sg11
I68970
sg12
g13
((dp1651
S'AO1'
p1652
I3146
sS'DH'
p1653
I738
sS'IH2'
p1654
I3619
sS'UW2'
p1655
I27
sS'IH0'
p1656
I6170
sS'IH1'
p1657
I15256
sS'AH2'
p1658
I1
sS'AH0'
p1659
I3873
sS'AH1'
p1660
I1169
sS'JH'
p1661
I168
sS'UH1'
p1662
I2
sg30
I2
sS'EH2'
p1663
I79
sS'EH0'
p1664
I12
sS'EH1'
p1665
I749
sS'EY1'
p1666
I45
sS'EY2'
p1667
I21
sS'TH'
p1668
I46
sS'IY1'
p1669
I820
sS'OW2'
p1670
I25
sS'AY1'
p1671
I597
sS'UW1'
p1672
I44
sS'IY0'
p1673
I1842
sS'CH'
p1674
I48
sg17
I578
sg31
I238
sg19
I545
sg20
I1075
sS'IY2'
p1675
I258
sg21
I475
sS'AW2'
p1676
I2
sS'AW1'
p1677
I3304
sg22
I1066
sg24
I574
sg25
I2618
sg26
I8030
sg28
I472
sg51
I866
sg29
I99
sg52
I961
sg23
I419
sS'OW1'
p1678
I75
sS'OW0'
p1679
I18
sS'AO0'
p1680
I153
sS'AE1'
p1681
I4051
sS'AE0'
p1682
I22
sS'AE2'
p1683
I11
sS'ER0'
p1684
I1628
sS'ER1'
p1685
I1313
sS'ER2'
p1686
I10
sS'HH'
p1687
I418
sS'OY1'
p1688
I4
sS'AY0'
p1689
I4
sS'SH'
p1690
I104
sS'AA1'
p1691
I376
sS'AA0'
p1692
I31
sS'AA2'
p1693
I22
sg35
I579
sS'AY2'
p1694
I16
sS'AO2'
p1695
I56
stp1696
Rp1697
sg38
I17104027
sg39
F8620983.5
sbsg1052
g0
(g5
g6
Ntp1698
Rp1699
(dp1700
g10
F0.5
sg11
I294337
sg12
g13
((dp1701
S'AO1'
p1702
I1447
sS'DH'
p1703
I7463
sS'IH2'
p1704
I1044
sS'IH0'
p1705
I6628
sS'UW0'
p1706
I3
sS'AH2'
p1707
I103
sS'AH0'
p1708
I11544
sS'CH'
p1709
I5645
sS'JH'
p1710
I2789
sS'AO0'
p1711
I67
sg30
I22949
sS'EH2'
p1712
I510
sS'EH0'
p1713
I243
sS'EH1'
p1714
I6620
sS'NG'
p1715
I19
sS'EY1'
p1716
I1906
sS'EY0'
p1717
I30
sS'EY2'
p1718
I67
sS'TH'
p1719
I1919
sS'AA1'
p1720
I4059
sS'AY1'
p1721
I2092
sS'AY0'
p1722
I52
sS'AA0'
p1723
I143
sS'IH1'
p1724
I3238
sS'ZH'
p1725
I189
sg17
I23155
sg31
I4890
sg19
I5616
sg20
I15593
sS'AA2'
p1726
I16
sg21
I15596
sS'AW2'
p1727
I1
sS'AW1'
p1728
I241
sg22
I12596
sg24
I18342
sg25
I20174
sg26
I9630
sg28
I15561
sg51
I8626
sg29
I19741
sg52
I2258
sg23
I22390
sS'OW1'
p1729
I1009
sS'OW0'
p1730
I314
sS'OW2'
p1731
I67
sS'AE1'
p1732
I2174
sS'AE0'
p1733
I160
sS'AE2'
p1734
I70
sS'ER0'
p1735
I189
sS'ER1'
p1736
I41
sS'UW1'
p1737
I60
sS'SH'
p1738
I2690
sS'AW0'
p1739
I7
sS'HH'
p1740
I5751
sS'OY1'
p1741
I6
sS'OY0'
p1742
I1
sS'AH1'
p1743
I895
sS'IY1'
p1744
I907
sS'IY0'
p1745
I78
sS'IY2'
p1746
I22
sg35
I4647
sS'AY2'
p1747
I8
sS'AO2'
p1748
I46
stp1749
Rp1750
sg38
I17104027
sg39
F8846350.5
sbsS'start'
p1751
g0
(g5
g6
Ntp1752
Rp1753
(dp1754
g10
F0.5
sg11
I291024
sg12
g13
((dp1755
g51
I17682
sS'DH'
p1756
I37026
sS'IH2'
p1757
I1464
sS'IH0'
p1758
I7678
sS'IH1'
p1759
I20129
sS'AH2'
p1760
I42
sS'HH'
p1761
I11603
sS'AH1'
p1762
I2088
sS'JH'
p1763
I4488
sS'AA0'
p1764
I191
sS'UW1'
p1765
I39
sS'EH2'
p1766
I251
sS'EH0'
p1767
I134
sS'EH1'
p1768
I5277
sS'EY1'
p1769
I385
sS'EY0'
p1770
I10
sS'EY2'
p1771
I21
sS'TH'
p1772
I3182
sS'IY1'
p1773
I1418
sS'AY1'
p1774
I26966
sS'AY0'
p1775
I82
sS'AY2'
p1776
I18
sg29
I1146
sS'CH'
p1777
I873
sS'ZH'
p1778
I24
sg17
I8435
sg31
I3323
sg19
I25172
sg20
I9492
sS'AA2'
p1779
I57
sg21
I10416
sg22
I3934
sS'AW1'
p1780
I386
sg23
I7077
sg24
I7013
sg25
I15035
sg26
I5391
sg28
I5302
sg1072
I4151
sS'AO0'
p1781
I71
sg52
I7478
sg30
I126
sS'OW1'
p1782
I1726
sS'OW0'
p1783
I56
sS'OW2'
p1784
I114
sS'AE1'
p1785
I6467
sS'AE0'
p1786
I193
sS'AE2'
p1787
I165
sS'ER0'
p1788
I87
sS'ER1'
p1789
I123
sS'ER2'
p1790
I6
sS'AH0'
p1791
I11369
sS'OY1'
p1792
I21
sS'SH'
p1793
I1865
sS'AA1'
p1794
I2758
sS'IY0'
p1795
I168
sS'IY2'
p1796
I5
sg35
I10512
sS'AO2'
p1797
I313
stp1798
Rp1799
sg38
I17104027
sg39
F8843037.5
sbsg898
g0
(g5
g6
Ntp1800
Rp1801
(dp1802
g10
F0.5
sg11
I11025
sg12
g13
((dp1803
g51
I16
sS'DH'
p1804
I12
sS'IH2'
p1805
I1
sS'IH0'
p1806
I6
sS'IH1'
p1807
I24
sS'AH0'
p1808
I28
sS'AH1'
p1809
I2
sS'JH'
p1810
I212
sS'EH2'
p1811
I3
sS'EH1'
p1812
I1
sS'NG'
p1813
I33
sS'AA1'
p1814
I10
sS'AY1'
p1815
I1
sS'UW1'
p1816
I27
sg35
I196
sg17
I81
sg31
I102
sg19
I36
sg20
I467
sg21
I426
sg22
I940
sS'AW1'
p1817
I1
sg23
I1985
sg24
I100
sg25
I255
sg26
I4162
sg28
I1465
sS'AO1'
p1818
I3
sg29
I208
sg52
I22
sg30
I31
sS'OW0'
p1819
I4
sS'AE1'
p1820
I6
sS'AE0'
p1821
I1
sS'HH'
p1822
I119
sS'AY0'
p1823
I1
sS'SH'
p1824
I17
sS'IY1'
p1825
I14
sS'IY2'
p1826
I7
stp1827
Rp1828
sg38
I17104027
sg39
F8563038.5
sbsg278
g0
(g5
g6
Ntp1829
Rp1830
(dp1831
g10
F0.5
sg11
I9949
sg12
g13
((dp1832
S'UW0'
p1833
I6
sS'AO1'
p1834
I11
sS'DH'
p1835
I21
sS'UW2'
p1836
I145
sS'IH0'
p1837
I132
sS'IH1'
p1838
I12
sS'AH0'
p1839
I7941
sS'AH1'
p1840
I2
sS'JH'
p1841
I1
sS'UH1'
p1842
I2
sS'EH1'
p1843
I5
sS'EY1'
p1844
I3
sS'EY2'
p1845
I4
sS'IY1'
p1846
I120
sS'AY1'
p1847
I3
sS'UW1'
p1848
I2
sS'IY0'
p1849
I3
sg35
I2
sg17
I19
sg31
I1
sg19
I5
sg20
I11
sS'AA2'
p1850
I3
sg21
I2
sg22
I4
sS'AW1'
p1851
I24
sg23
I1
sg24
I4
sg25
I22
sg26
I17
sg28
I2
sg51
I164
sg52
I1
sS'OW1'
p1852
I4
sS'AE1'
p1853
I11
sS'AE2'
p1854
I1
sS'ER0'
p1855
I1177
sS'ER1'
p1856
I2
sS'HH'
p1857
I2
sS'AA1'
p1858
I33
sS'AA0'
p1859
I13
sS'IY2'
p1860
I11
stp1861
Rp1862
sg38
I17104027
sg39
F8561962.5
sbsg31
g0
(g5
g6
Ntp1863
Rp1864
(dp1865
g10
F0.5
sg11
I150669
sg12
g13
((dp1866
S'IH2'
p1867
I68
sS'IH0'
p1868
I889
sS'IH1'
p1869
I7562
sS'AH2'
p1870
I414
sS'AH0'
p1871
I9807
sS'AH1'
p1872
I6437
sS'JH'
p1873
I300
sg231
I393
sS'EH0'
p1874
I31
sS'EH1'
p1875
I18274
sS'EY1'
p1876
I6663
sS'EY0'
p1877
I19
sS'EY2'
p1878
I711
sS'AY1'
p1879
I2178
sS'AY0'
p1880
I5
sS'AY2'
p1881
I15
sg29
I83
sg35
I581
sg17
I773
sg19
I417
sS'AW2'
p1882
I9
sS'AW1'
p1883
I140
sg23
I4219
sg24
I343
sg26
I28138
sg28
I277
sS'AO1'
p1884
I1344
sS'AO0'
p1885
I19
sg30
I8582
sS'OY2'
p1886
I3
sS'OY1'
p1887
I3
sS'SH'
p1888
I79
sS'DH'
p1889
I247
sS'UW1'
p1890
I210
sS'UW0'
p1891
I42
sS'HH'
p1892
I443
sS'CH'
p1893
I53
sS'UH2'
p1894
I27
sS'UH0'
p1895
I2
sS'UH1'
p1896
I6024
sS'TH'
p1897
I40
sS'AA1'
p1898
I11630
sS'IY0'
p1899
I202
sS'ZH'
p1900
I78
sg31
I123
sg20
I370
sS'AA2'
p1901
I361
sg21
I730
sg22
I3298
sg25
I620
sg51
I1713
sg52
I4587
sS'OW1'
p1902
I11338
sS'OW0'
p1903
I667
sS'OW2'
p1904
I817
sS'AE1'
p1905
I3053
sS'AE0'
p1906
I48
sS'AE2'
p1907
I158
sS'ER0'
p1908
I4171
sS'ER1'
p1909
I344
sS'ER2'
p1910
I3
sS'IY1'
p1911
I141
sS'AA0'
p1912
I95
sS'IY2'
p1913
I8
sS'AO2'
p1914
I250
stp1915
Rp1916
sg38
I17104027
sg39
F8702682.5
sbsg20
g0
(g5
g6
Ntp1917
Rp1918
(dp1919
g10
F0.5
sg11
I605225
sg12
g13
((dp1920
S'IH2'
p1921
I633
sS'IH0'
p1922
I13915
sS'IH1'
p1923
I10425
sS'AH2'
p1924
I937
sS'AH0'
p1925
I86701
sS'AH1'
p1926
I22990
sS'JH'
p1927
I1019
sS'EH2'
p1928
I540
sS'EH0'
p1929
I107
sS'EH1'
p1930
I7604
sS'EY1'
p1931
I16777
sS'EY0'
p1932
I136
sS'EY2'
p1933
I2287
sS'OW2'
p1934
I796
sS'AY1'
p1935
I3958
sS'AY0'
p1936
I60
sS'AY2'
p1937
I545
sS'CH'
p1938
I5033
sg17
I2920
sg19
I3863
sS'AW2'
p1939
I73
sS'AW1'
p1940
I3112
sg23
I4034
sg24
I2687
sg26
I31626
sg28
I68609
sS'AO1'
p1941
I19591
sg29
I725
sg30
I66
sS'OY2'
p1942
I1
sS'OY1'
p1943
I218
sS'OY0'
p1944
I1
sS'SH'
p1945
I12334
sS'DH'
p1946
I8842
sS'UW2'
p1947
I25
sS'UW1'
p1948
I2359
sS'UW0'
p1949
I271
sS'HH'
p1950
I2804
sg35
I2710
sS'UH2'
p1951
I4
sS'UH0'
p1952
I2
sS'UH1'
p1953
I6853
sS'TH'
p1954
I811
sS'AA1'
p1955
I31161
sS'IY0'
p1956
I3765
sS'ZH'
p1957
I3
sg31
I1448
sg20
I3684
sS'AA2'
p1958
I3978
sg21
I3957
sg22
I27183
sg25
I77597
sg51
I23116
sg52
I15902
sS'AW0'
p1959
I9
sS'OW1'
p1960
I4842
sS'OW0'
p1961
I2423
sS'AO0'
p1962
I301
sS'AE1'
p1963
I33554
sS'AE0'
p1964
I429
sS'AE2'
p1965
I1427
sS'ER0'
p1966
I5931
sS'ER1'
p1967
I4588
sS'ER2'
p1968
I20
sS'IY1'
p1969
I7507
sS'AA0'
p1970
I770
sS'IY2'
p1971
I223
sS'AO2'
p1972
I2403
stp1973
Rp1974
sg38
I17104027
sg39
F9157238.5
sbsg1055
g0
(g5
g6
Ntp1975
Rp1976
(dp1977
g10
F0.5
sg11
I19159
sg12
g13
((dp1978
g51
I532
sS'DH'
p1979
I450
sS'IH2'
p1980
I101
sS'IH0'
p1981
I456
sS'UW0'
p1982
I11
sS'AH2'
p1983
I4
sS'AH0'
p1984
I2652
sS'AH1'
p1985
I397
sS'JH'
p1986
I84
sS'AA0'
p1987
I7
sS'AO0'
p1988
I8
sg30
I1567
sS'EH2'
p1989
I33
sS'EH0'
p1990
I18
sS'EH1'
p1991
I203
sS'EY1'
p1992
I136
sS'EY0'
p1993
I14
sS'EY2'
p1994
I3
sS'TH'
p1995
I64
sS'AA1'
p1996
I159
sS'AY1'
p1997
I91
sS'UW1'
p1998
I1
sS'AY2'
p1999
I7
sS'IH1'
p2000
I615
sg17
I767
sg31
I224
sg19
I314
sg20
I1127
sg21
I420
sS'AW2'
p2001
I1
sS'AW1'
p2002
I15
sg22
I732
sg24
I1462
sg25
I1284
sg26
I320
sg28
I816
sS'AO1'
p2003
I204
sg29
I529
sg52
I102
sg23
I1281
sS'OW1'
p2004
I59
sS'OW0'
p2005
I33
sS'OW2'
p2006
I8
sS'AE1'
p2007
I609
sS'AE0'
p2008
I10
sS'AE2'
p2009
I10
sS'ER0'
p2010
I183
sS'ER1'
p2011
I1
sS'CH'
p2012
I67
sS'HH'
p2013
I327
sS'SH'
p2014
I101
sS'IY1'
p2015
I42
sS'IY0'
p2016
I1
sS'AA2'
p2017
I1
sg35
I490
sS'AO2'
p2018
I6
stp2019
Rp2020
sg38
I17104027
sg39
F8571172.5
sbsg21
g0
(g5
g6
Ntp2021
Rp2022
(dp2023
g10
F0.5
sg11
I515440
sg12
g13
((dp2024
S'IH2'
p2025
I2147
sS'IH0'
p2026
I11897
sS'IH1'
p2027
I20610
sS'AH2'
p2028
I540
sS'AH0'
p2029
I62624
sS'AH1'
p2030
I19439
sS'JH'
p2031
I3266
sS'EH2'
p2032
I1552
sS'EH0'
p2033
I2661
sS'EH1'
p2034
I29341
sS'EY1'
p2035
I29693
sS'EY0'
p2036
I535
sS'EY2'
p2037
I2287
sS'AY1'
p2038
I29531
sS'AY0'
p2039
I536
sS'AY2'
p2040
I1347
sg29
I1280
sg35
I16101
sg17
I8687
sg19
I5702
sS'AW2'
p2041
I33
sS'AW1'
p2042
I3324
sg23
I4424
sg24
I35544
sg26
I4769
sS'AO2'
p2043
I1001
sS'AO1'
p2044
I16092
sS'AO0'
p2045
I310
sg30
I21834
sS'OY2'
p2046
I22
sS'OY1'
p2047
I124
sS'SH'
p2048
I1134
sS'DH'
p2049
I9914
sS'UW2'
p2050
I6
sS'UW1'
p2051
I3854
sS'UW0'
p2052
I34
sS'HH'
p2053
I3880
sS'CH'
p2054
I576
sS'UH0'
p2055
I65
sS'UH1'
p2056
I207
sS'TH'
p2057
I4603
sS'IY1'
p2058
I21641
sS'AA0'
p2059
I791
sS'ZH'
p2060
I13
sg31
I2694
sg20
I6946
sS'AA2'
p2061
I739
sg21
I5492
sg22
I3874
sg25
I12263
sg51
I10832
sg52
I6036
sS'AW0'
p2062
I19
sS'OW1'
p2063
I11233
sS'OW0'
p2064
I2770
sS'OW2'
p2065
I1902
sS'AE1'
p2066
I26468
sS'AE0'
p2067
I560
sS'AE2'
p2068
I2843
sS'ER0'
p2069
I7349
sS'ER1'
p2070
I2635
sS'ER2'
p2071
I8
sS'AA1'
p2072
I14424
sS'IY0'
p2073
I2504
sS'IY2'
p2074
I205
sg28
I9673
stp2075
Rp2076
sg38
I17104027
sg39
F9067453.5
sbsg22
g0
(g5
g6
Ntp2077
Rp2078
(dp2079
g10
F0.5
sg11
I666371
sg12
g13
((dp2080
S'IH2'
p2081
I3215
sS'IH0'
p2082
I23436
sg58
I28851
sS'AH2'
p2083
I261
sS'AH0'
p2084
I58745
sS'AH1'
p2085
I13089
sS'JH'
p2086
I3039
sS'EH2'
p2087
I2393
sS'EH0'
p2088
I821
sS'EH1'
p2089
I22486
sS'EY1'
p2090
I26511
sS'EY0'
p2091
I287
sS'EY2'
p2092
I1853
sS'AY1'
p2093
I31416
sS'AY0'
p2094
I349
sS'AY2'
p2095
I3510
sg29
I5986
sg35
I12552
sg17
I31460
sg19
I13807
sS'AW2'
p2096
I32
sS'AW1'
p2097
I3085
sg23
I5143
sg24
I13594
sg26
I9986
sg28
I22834
sS'AO1'
p2098
I15268
sS'AO0'
p2099
I482
sg30
I19917
sS'OY2'
p2100
I81
sS'OY1'
p2101
I959
sg1276
I12
sS'SH'
p2102
I1518
sS'DH'
p2103
I11815
sS'UW2'
p2104
I558
sS'UW1'
p2105
I11377
sS'UW0'
p2106
I415
sS'HH'
p2107
I8065
sS'CH'
p2108
I1676
sS'UH2'
p2109
I103
sS'UH1'
p2110
I5542
sS'TH'
p2111
I2573
sS'IY1'
p2112
I24350
sS'IY0'
p2113
I65067
sS'ZH'
p2114
I28
sg31
I4480
sg20
I12486
sS'IY2'
p2115
I3038
sg21
I11526
sg22
I4534
sg25
I25294
sg51
I10796
sg52
I15129
sS'AW0'
p2116
I17
sS'OW1'
p2117
I11879
sS'OW0'
p2118
I4483
sS'OW2'
p2119
I931
sS'AE1'
p2120
I20684
sS'AE0'
p2121
I568
sS'AE2'
p2122
I874
sS'ER0'
p2123
I12888
sS'ER1'
p2124
I1509
sS'ER2'
p2125
I4
sS'AA1'
p2126
I15174
sS'AA0'
p2127
I300
sS'AA2'
p2128
I490
sS'AO2'
p2129
I740
stp2130
Rp2131
sg38
I17104027
sg39
F9218384.5
sbsg25
g0
(g5
g6
Ntp2132
Rp2133
(dp2134
g10
F0.5
sg11
I875175
sg12
g13
((dp2135
S'IH2'
p2136
I4632
sg40
I28552
sS'IH1'
p2137
I46900
sS'AH2'
p2138
I242
sg90
I102986
sS'AH1'
p2139
I42632
sS'JH'
p2140
I2370
sS'EH2'
p2141
I5122
sS'EH0'
p2142
I1808
sS'EH1'
p2143
I48383
sS'EY1'
p2144
I17224
sS'EY0'
p2145
I8
sS'EY2'
p2146
I185
sS'AY1'
p2147
I17830
sS'AY0'
p2148
I358
sg576
I2987
sg29
I2001
sg613
I10054
sg17
I7901
sg19
I13402
sS'AW2'
p2149
I73
sS'AW1'
p2150
I3099
sg23
I5966
sg24
I43765
sg26
I6664
sg28
I185250
sS'AO1'
p2151
I12052
sS'AO0'
p2152
I863
sg30
I230
sS'OY2'
p2153
I4
sS'OY1'
p2154
I108
sS'SH'
p2155
I1415
sS'DH'
p2156
I17702
sS'UW2'
p2157
I487
sS'UW1'
p2158
I3765
sS'UW0'
p2159
I302
sS'HH'
p2160
I7490
sg35
I10920
sS'UH0'
p2161
I16
sS'UH1'
p2162
I26
sS'TH'
p2163
I1113
sS'AA1'
p2164
I10696
sS'IY0'
p2165
I8023
sS'ZH'
p2166
I19
sg31
I3778
sg20
I38163
sS'AA2'
p2167
I224
sg21
I17867
sg22
I12476
sg25
I14593
sg51
I18732
sg52
I5099
sS'AW0'
p2168
I7
sS'OW1'
p2169
I17896
sS'OW0'
p2170
I8428
sS'OW2'
p2171
I502
sS'AE1'
p2172
I10931
sS'AE0'
p2173
I556
sS'AE2'
p2174
I527
sS'ER0'
p2175
I8799
sS'ER1'
p2176
I12200
sS'ER2'
p2177
I212
sS'IY1'
p2178
I27570
sS'AA0'
p2179
I306
sS'IY2'
p2180
I392
sS'AO2'
p2181
I292
stp2182
Rp2183
sg38
I17104027
sg39
F9427188.5
sbsg51
g0
(g5
g6
Ntp2184
Rp2185
(dp2186
g10
F0.5
sg11
I309883
sg12
g13
((dp2187
S'IH2'
p2188
I87
sS'UW2'
p2189
I2
sS'IH0'
p2190
I4655
sS'IH1'
p2191
I70277
sg75
I8924
sS'AH0'
p2192
I6793
sS'AH1'
p2193
I35086
sS'UH2'
p2194
I359
sS'UH0'
p2195
I20
sS'UH1'
p2196
I16812
sS'AA0'
p2197
I163
sS'EH2'
p2198
I5274
sS'EH0'
p2199
I575
sS'EH1'
p2200
I32324
sS'EY1'
p2201
I11479
sS'EY0'
p2202
I43
sS'EY2'
p2203
I3939
sS'AA1'
p2204
I32850
sS'AY1'
p2205
I18887
sS'UW1'
p2206
I322
sS'AY2'
p2207
I802
sS'AA2'
p2208
I460
sS'AW1'
p2209
I162
sS'AO2'
p2210
I171
sS'AO1'
p2211
I8380
sS'AO0'
p2212
I30
sS'OW1'
p2213
I2303
sS'OW0'
p2214
I75
sS'AE1'
p2215
I827
sS'AE2'
p2216
I27
sS'ER0'
p2217
I1155
sS'ER1'
p2218
I24139
sS'ER2'
p2219
I1661
sS'OY2'
p2220
I10
sS'OY1'
p2221
I7
sS'AY0'
p2222
I31
sS'IY1'
p2223
I20693
sS'IY0'
p2224
I36
sS'IY2'
p2225
I43
stp2226
Rp2227
sg38
I17104027
sg39
F8861896.5
sbsg52
g0
(g5
g6
Ntp2228
Rp2229
(dp2230
g10
F0.5
sg11
I164544
sg12
g13
((dp2231
S'AO1'
p2232
I13023
sS'IH2'
p2233
I26
sg1387
I5030
sS'UW1'
p2234
I89645
sS'UW0'
p2235
I14641
sS'AH0'
p2236
I18246
sS'AH1'
p2237
I936
sg1622
I526
sS'UH0'
p2238
I94
sS'UH1'
p2239
I5194
sS'EH2'
p2240
I4
sS'EH0'
p2241
I34
sS'EH1'
p2242
I4129
sS'EY1'
p2243
I121
sS'IY1'
p2244
I453
sS'AY1'
p2245
I3
sS'IH0'
p2246
I72
sS'IH1'
p2247
I5782
sS'AW1'
p2248
I41
sg26
I1
sS'AO2'
p2249
I33
sg51
I1
sS'OW1'
p2250
I304
sS'OW0'
p2251
I61
sS'OW2'
p2252
I78
sS'AE1'
p2253
I866
sS'ER0'
p2254
I4462
sS'ER1'
p2255
I87
sS'ER2'
p2256
I1
sS'OY1'
p2257
I6
sS'AA1'
p2258
I479
sS'AA0'
p2259
I55
sS'AA2'
p2260
I110
stp2261
Rp2262
sg38
I17104027
sg39
F8716557.5
sbsg1056
g0
(g5
g6
Ntp2263
Rp2264
(dp2265
g10
F0.5
sg11
I1102
sg12
g13
((dp2266
g35
I15
sS'ER0'
p2267
I214
sg31
I4
sg20
I4
sS'IH1'
p2268
I2
sg21
I11
sg23
I722
sg24
I1
sg25
I10
sg26
I3
sg28
I112
sS'CH'
p2269
I1
sg30
I3
stp2270
Rp2271
sg38
I17104027
sg39
F8553115.5
sbsg888
g0
(g5
g6
Ntp2272
Rp2273
(dp2274
g10
F0.5
sg11
I180227
sg12
g13
((dp2275
S'AO1'
p2276
I418
sS'DH'
p2277
I5452
sS'IH2'
p2278
I330
sS'IH0'
p2279
I5093
sS'IH1'
p2280
I2734
sS'AH2'
p2281
I21
sS'HH'
p2282
I2055
sS'AH1'
p2283
I1072
sS'JH'
p2284
I522
sg30
I12115
sS'EH2'
p2285
I31
sS'EH0'
p2286
I19
sS'EH1'
p2287
I1295
sS'NG'
p2288
I6
sS'EY1'
p2289
I252
sS'EY2'
p2290
I11
sS'TH'
p2291
I3287
sS'AA1'
p2292
I1176
sS'AY1'
p2293
I2561
sS'AY0'
p2294
I187
sS'AA0'
p2295
I22
sg29
I6941
sS'CH'
p2296
I1085
sS'ZH'
p2297
I300
sg17
I7776
sg31
I5479
sg19
I2047
sg20
I7557
sg21
I6092
sS'AW2'
p2298
I11
sS'AW1'
p2299
I211
sg22
I18696
sg24
I6532
sg25
I15826
sg26
I1138
sg28
I12881
sg51
I4914
sS'AO0'
p2300
I18
sg52
I1242
sg23
I31741
sS'OW1'
p2301
I551
sS'OW0'
p2302
I3
sS'OW2'
p2303
I9
sS'AE1'
p2304
I700
sS'AE0'
p2305
I32
sS'AE2'
p2306
I31
sS'ER0'
p2307
I811
sS'ER1'
p2308
I32
sS'UW1'
p2309
I2
sS'AW0'
p2310
I4
sS'AH0'
p2311
I3048
sS'OY1'
p2312
I5
sS'SH'
p2313
I1807
sS'IY1'
p2314
I195
sS'IY0'
p2315
I29
sS'AA2'
p2316
I111
sg35
I3695
sS'AY2'
p2317
I2
sS'AO2'
p2318
I14
stp2319
Rp2320
sg38
I17104027
sg39
F8732240.5
sbsg2170
g0
(g5
g6
Ntp2321
Rp2322
(dp2323
g10
F0.5
sg11
I36461
sg12
g13
((dp2324
g51
I1050
sS'DH'
p2325
I908
sS'IH2'
p2326
I309
sS'IH0'
p2327
I2133
sS'IH1'
p2328
I898
sS'AH2'
p2329
I108
sS'HH'
p2330
I1609
sS'AH1'
p2331
I238
sS'JH'
p2332
I209
sS'AO0'
p2333
I10
sg30
I3857
sS'EH2'
p2334
I21
sS'EH0'
p2335
I28
sS'EH1'
p2336
I432
sS'EY1'
p2337
I75
sS'EY2'
p2338
I3
sS'TH'
p2339
I123
sS'AA1'
p2340
I643
sS'AY1'
p2341
I287
sS'AY0'
p2342
I7
sS'AA0'
p2343
I67
sS'CH'
p2344
I103
sS'ZH'
p2345
I5
sg17
I1482
sg31
I371
sg19
I843
sg20
I2162
sS'AA2'
p2346
I126
sg21
I1758
sS'AW2'
p2347
I1
sS'AW1'
p2348
I48
sg22
I985
sg24
I982
sg25
I5125
sg26
I929
sg28
I1921
sS'AO1'
p2349
I394
sg29
I531
sg52
I496
sg23
I694
sS'OW1'
p2350
I77
sS'OW0'
p2351
I6
sS'OW2'
p2352
I3
sS'AE1'
p2353
I433
sS'AE0'
p2354
I38
sS'AE2'
p2355
I21
sS'ER0'
p2356
I239
sS'ER1'
p2357
I82
sS'UW1'
p2358
I1
sS'AH0'
p2359
I1495
sS'OY1'
p2360
I2
sS'SH'
p2361
I319
sS'IY1'
p2362
I44
sS'IY0'
p2363
I23
sS'IY2'
p2364
I2
sg35
I1679
sS'AO2'
p2365
I26
stp2366
Rp2367
sg38
I17104027
sg39
F8588474.5
sbsg1962
g0
(g5
g6
Ntp2368
Rp2369
(dp2370
g10
F0.5
sg11
I5474
sg12
g13
((dp2371
g35
I3
sg17
I19
sg31
I302
sg19
I113
sg20
I267
sS'IH1'
p2372
I2
sg21
I11
sg22
I1935
sg23
I185
sg24
I4
sg25
I329
sg26
I2117
sS'JH'
p2373
I4
sg28
I87
sg29
I1
sg30
I4
sS'NG'
p2374
I14
sS'TH'
p2375
I77
stp2376
Rp2377
sg38
I17104027
sg39
F8557487.5
sbsg1368
g0
(g5
g6
Ntp2378
Rp2379
(dp2380
g10
F0.5
sg11
I412919
sg12
g13
((dp2381
g51
I14
sS'DH'
p2382
I2185
sS'IH1'
p2383
I25
sS'HH'
p2384
I29
sS'AH1'
p2385
I3
sS'JH'
p2386
I1262
sS'EH1'
p2387
I1
sS'NG'
p2388
I8975
sS'TH'
p2389
I2465
sS'AY1'
p2390
I42
sS'CH'
p2391
I2474
sS'ZH'
p2392
I116
sg17
I17510
sg31
I2315
sg19
I8617
sg20
I38259
sg21
I15622
sg22
I14161
sg23
I89285
sg24
I10147
sg25
I19904
sg26
I3708
sg28
I94673
sS'AO1'
p2393
I3
sg29
I34036
sg52
I26
sg30
I38562
sS'OW1'
p2394
I2
sS'AE1'
p2395
I11
sS'AH0'
p2396
I24
sS'SH'
p2397
I4668
sS'IY1'
p2398
I1
sg35
I3794
stp2399
Rp2400
sg38
I17104027
sg39
F8964932.5
sbsS'AE0'
p2401
g0
(g5
g6
Ntp2402
Rp2403
(dp2404
g10
F0.5
sg11
I12051
sg12
g13
((dp2405
g35
I199
sg17
I2242
sg31
I292
sg19
I46
sg20
I3356
sg21
I441
sg22
I386
sg23
I4111
sg24
I88
sg25
I253
sS'CH'
p2406
I2
sg28
I343
sg29
I6
sg30
I29
sS'NG'
p2407
I107
sS'SH'
p2408
I11
sS'TH'
p2409
I139
stp2410
Rp2411
sg38
I17104027
sg39
F8564064.5
sbsg711
g0
(g5
g6
Ntp2412
Rp2413
(dp2414
g10
F0.5
sg11
I21587
sg12
g13
((dp2415
g35
I608
sg17
I277
sg31
I154
sg19
I1020
sg20
I3143
sg21
I5025
sg22
I1903
sg23
I3010
sg24
I2353
sg25
I1184
sS'CH'
p2416
I56
sS'JH'
p2417
I123
sg28
I1708
sg29
I61
sg26
I11
sg30
I76
sS'DH'
p2418
I19
sS'NG'
p2419
I356
sS'SH'
p2420
I212
sS'TH'
p2421
I288
stp2422
Rp2423
sg38
I17104027
sg39
F8573600.5
sbsg1155
g0
(g5
g6
Ntp2424
Rp2425
(dp2426
g10
F0.5
sg11
I274207
sg12
g13
((dp2427
S'IH2'
p2428
I2006
sS'IH0'
p2429
I7402
sS'IH1'
p2430
I7793
sS'AH2'
p2431
I128
sS'AH0'
p2432
I25520
sS'AH1'
p2433
I6549
sS'JH'
p2434
I2173
sS'EH2'
p2435
I480
sS'EH0'
p2436
I185
sS'EH1'
p2437
I7268
sS'EY1'
p2438
I3563
sS'EY0'
p2439
I11
sS'EY2'
p2440
I2664
sS'AY1'
p2441
I2668
sg550
I83
sS'AY2'
p2442
I469
sg29
I3174
sS'CH'
p2443
I1305
sg17
I16494
sg19
I8435
sS'AW2'
p2444
I14
sS'AW1'
p2445
I3020
sg23
I10943
sg24
I7363
sg26
I5105
sg28
I14151
sS'AO1'
p2446
I2696
sS'AO0'
p2447
I86
sg30
I31956
sS'OY2'
p2448
I98
sS'OY1'
p2449
I42
sS'SH'
p2450
I1316
sS'DH'
p2451
I12212
sS'UW2'
p2452
I1
sS'UW1'
p2453
I231
sS'UW0'
p2454
I34
sS'HH'
p2455
I6562
sg35
I6212
sS'UH1'
p2456
I7
sS'TH'
p2457
I777
sS'AA1'
p2458
I3193
sS'IY0'
p2459
I9325
sS'ZH'
p2460
I8
sg31
I4227
sg20
I7284
sS'AA2'
p2461
I792
sg21
I6461
sg22
I5279
sg25
I17943
sg51
I8808
sg52
I2502
sS'AW0'
p2462
I7
sS'OW1'
p2463
I1051
sS'OW0'
p2464
I254
sS'OW2'
p2465
I52
sS'AE1'
p2466
I3181
sS'AE0'
p2467
I241
sS'AE2'
p2468
I210
sS'ER0'
p2469
I622
sS'ER1'
p2470
I57
sS'ER2'
p2471
I2
sS'IY1'
p2472
I1019
sS'AA0'
p2473
I86
sS'IY2'
p2474
I45
sS'AO2'
p2475
I362
stp2476
Rp2477
sg38
I17104027
sg39
F8826220.5
sbsg770
g0
(g5
g6
Ntp2478
Rp2479
(dp2480
g10
F0.5
sg11
I95691
sg12
g13
((dp2481
S'AO1'
p2482
I283
sS'DH'
p2483
I1659
sS'IH2'
p2484
I194
sS'IH0'
p2485
I1148
sS'IH1'
p2486
I196
sS'AH2'
p2487
I13
sS'AH0'
p2488
I3207
sS'AH1'
p2489
I145
sS'JH'
p2490
I1212
sS'AO0'
p2491
I26
sS'EH2'
p2492
I5
sS'EH0'
p2493
I98
sS'EH1'
p2494
I127
sS'EY1'
p2495
I92
sS'TH'
p2496
I2313
sS'AA1'
p2497
I154
sS'AY1'
p2498
I64
sS'AY0'
p2499
I7
sS'IY0'
p2500
I785
sg35
I1777
sS'ZH'
p2501
I2451
sg17
I7712
sg31
I623
sg19
I1522
sg20
I11848
sg21
I4909
sg22
I4677
sS'AW1'
p2502
I61
sg23
I9692
sg24
I2096
sg25
I15555
sg26
I597
sg28
I6090
sg51
I439
sg29
I5588
sg52
I325
sg30
I755
sS'OW1'
p2503
I108
sS'OW0'
p2504
I134
sS'OW2'
p2505
I6
sS'AE1'
p2506
I352
sS'AE0'
p2507
I18
sS'AE2'
p2508
I21
sS'ER0'
p2509
I42
sS'ER1'
p2510
I10
sS'CH'
p2511
I4646
sS'HH'
p2512
I350
sS'SH'
p2513
I1451
sS'IY1'
p2514
I55
sS'AA0'
p2515
I23
sS'AA2'
p2516
I24
sS'AO2'
p2517
I6
stp2518
Rp2519
sg38
I17104027
sg39
F8647704.5
sbsg654
g0
(g5
g6
Ntp2520
Rp2521
(dp2522
g10
F0.5
sg11
I4413
sg12
g13
((dp2523
g51
I11
sS'DH'
p2524
I58
sS'IH0'
p2525
I14
sS'IH1'
p2526
I6
sS'AH0'
p2527
I277
sS'AH1'
p2528
I7
sS'JH'
p2529
I9
sS'EH1'
p2530
I4
sS'EY1'
p2531
I49
sS'EY2'
p2532
I27
sS'TH'
p2533
I39
sS'AA1'
p2534
I5
sS'AY1'
p2535
I1
sS'AY2'
p2536
I1
sS'CH'
p2537
I2
sg17
I328
sg31
I41
sg19
I5
sg20
I1416
sg21
I251
sg22
I95
sg23
I55
sg24
I420
sg25
I845
sg26
I114
sg28
I214
sS'AO1'
p2538
I3
sg52
I10
sg30
I64
sS'OW0'
p2539
I6
sS'AE1'
p2540
I3
sS'AE0'
p2541
I1
sS'HH'
p2542
I15
sS'SH'
p2543
I6
sS'IY1'
p2544
I1
sS'IY0'
p2545
I5
sg35
I4
sS'AO2'
p2546
I1
stp2547
Rp2548
sg38
I17104027
sg39
F8556426.5
sbsg2204
g0
(g5
g6
Ntp2549
Rp2550
(dp2551
g10
F0.5
sg11
I330196
sg12
g13
((dp2552
g51
I207
sS'DH'
p2553
I1119
sS'IH2'
p2554
I10
sS'IH0'
p2555
I29
sS'UW0'
p2556
I6
sS'AH2'
p2557
I6
sS'HH'
p2558
I128
sS'CH'
p2559
I1234
sS'JH'
p2560
I3139
sS'AO0'
p2561
I5
sS'EH2'
p2562
I5
sS'EH0'
p2563
I1
sS'EH1'
p2564
I175
sS'NG'
p2565
I717
sS'EY1'
p2566
I6
sS'EY2'
p2567
I1
sS'TH'
p2568
I239
sS'IY1'
p2569
I16
sS'AY1'
p2570
I59
sS'UW1'
p2571
I1
sS'IY0'
p2572
I13
sS'IH1'
p2573
I71
sS'ZH'
p2574
I182
sg17
I11996
sg31
I1908
sg19
I1309
sg20
I10950
sg21
I12490
sg22
I15919
sS'AW1'
p2575
I5
sg23
I63082
sg24
I11788
sg25
I9784
sg26
I96384
sg28
I42992
sS'AO1'
p2576
I22
sg29
I846
sg52
I141
sg30
I27219
sS'OW1'
p2577
I21
sS'OW0'
p2578
I3
sS'OW2'
p2579
I1
sS'AE1'
p2580
I28
sS'SH'
p2581
I1127
sS'AH0'
p2582
I79
sS'AY0'
p2583
I2
sS'AH1'
p2584
I14
sS'AA1'
p2585
I52
sS'AA0'
p2586
I3
sg35
I14661
sS'AO2'
p2587
I1
stp2588
Rp2589
sg38
I17104027
sg39
F8882209.5
sbsg1053
g0
(g5
g6
Ntp2590
Rp2591
(dp2592
g10
F0.5
sg11
I233341
sg12
g13
((dp2593
g51
I15655
sS'DH'
p2594
I6437
sS'IH2'
p2595
I2460
sS'UW2'
p2596
I5
sS'IH0'
p2597
I4964
sS'IH1'
p2598
I5531
sS'AH2'
p2599
I199
sS'AH0'
p2600
I34837
sS'AH1'
p2601
I8749
sS'JH'
p2602
I1629
sS'AA0'
p2603
I150
sg30
I12799
sS'EH2'
p2604
I503
sS'EH0'
p2605
I403
sS'EH1'
p2606
I2086
sS'NG'
p2607
I5
sS'EY1'
p2608
I3259
sS'EY0'
p2609
I25
sS'EY2'
p2610
I1963
sS'TH'
p2611
I4627
sS'AA1'
p2612
I3307
sS'AY1'
p2613
I2057
sS'AY0'
p2614
I291
sS'AY2'
p2615
I13
sg29
I1655
sS'CH'
p2616
I809
sg17
I8033
sg31
I3415
sg19
I6096
sg20
I9725
sS'AA2'
p2617
I167
sg21
I8892
sS'AW2'
p2618
I3
sS'AW1'
p2619
I510
sg22
I5710
sg24
I8230
sg25
I14561
sg26
I6409
sg28
I8458
sS'AO1'
p2620
I2157
sS'AO0'
p2621
I93
sg52
I2513
sg23
I3959
sS'OW1'
p2622
I770
sS'OW0'
p2623
I1978
sg455
I1691
sS'AE1'
p2624
I5335
sg2401
I474
sS'AE2'
p2625
I311
sS'ER0'
p2626
I2268
sS'ER1'
p2627
I73
sS'UW1'
p2628
I52
sS'AW0'
p2629
I6
sS'HH'
p2630
I6345
sS'OY1'
p2631
I18
sS'SH'
p2632
I1081
sS'IY1'
p2633
I643
sS'IY0'
p2634
I58
sS'IY2'
p2635
I9
sg35
I8719
sS'AO2'
p2636
I161
stp2637
Rp2638
sg38
I17104027
sg39
F8785354.5
sbsg944
g0
(g5
g6
Ntp2639
Rp2640
(dp2641
g10
F0.5
sg11
I17597
sg12
g13
((dp2642
g51
I58
sS'DH'
p2643
I69
sS'IH0'
p2644
I9
sS'IH1'
p2645
I3
sS'AH0'
p2646
I28
sg35
I612
sS'JH'
p2647
I44
sS'EH2'
p2648
I3
sS'EH1'
p2649
I5
sS'NG'
p2650
I93
sS'TH'
p2651
I3
sS'AA1'
p2652
I8
sS'AY1'
p2653
I2
sS'AA0'
p2654
I32
sS'CH'
p2655
I11
sS'ZH'
p2656
I15
sg17
I1407
sg31
I37
sg19
I116
sg20
I1210
sg21
I1068
sg22
I1099
sg23
I3798
sg24
I2880
sg25
I627
sg26
I3055
sg28
I489
sS'AO1'
p2657
I3
sg29
I98
sg52
I2
sg30
I604
sS'AE1'
p2658
I4
sS'HH'
p2659
I29
sS'SH'
p2660
I72
sS'IY1'
p2661
I2
sS'IY0'
p2662
I2
stp2663
Rp2664
sg38
I17104027
sg39
F8569610.5
sbsg1498
g0
(g5
g6
Ntp2665
Rp2666
(dp2667
g10
F0.5
sg11
I16596
sg12
g13
((dp2668
g51
I10
sS'DH'
p2669
I6
sS'IH2'
p2670
I1
sS'IH0'
p2671
I19
sS'IH1'
p2672
I16
sS'AH0'
p2673
I22
sS'AH1'
p2674
I2
sS'JH'
p2675
I2
sS'EH2'
p2676
I2
sS'EH1'
p2677
I2
sS'NG'
p2678
I20
sS'EY1'
p2679
I6
sS'TH'
p2680
I85
sS'AY1'
p2681
I3
sg35
I12
sg17
I58
sg31
I314
sg19
I719
sg20
I149
sg21
I58
sg22
I2453
sg23
I96
sg24
I11
sg25
I355
sg26
I11036
sg28
I694
sS'AO1'
p2682
I1
sg29
I4
sg52
I5
sg30
I62
sS'OW1'
p2683
I1
sS'AE1'
p2684
I4
sS'ER1'
p2685
I2
sS'HH'
p2686
I17
sS'SH'
p2687
I346
sS'AA1'
p2688
I1
sS'IY0'
p2689
I1
sS'AO2'
p2690
I1
stp2691
Rp2692
sg38
I17104027
sg39
F8568609.5
sbstp2693
Rp2694
(dp2695
S'_probdist_factory'
p2696
g5
sS'_factory_args'
p2697
(I17104027
tp2698
sS'_factory_kw_args'
p2699
(dp2700
sb.